                              1 ;--------------------------------------------------------
                              2 ; File Created by SDCC : FreeWare ANSI-C Compiler
                              3 ; Version 2.2.1 Tue Feb 25 14:23:35 2020
                              4 
                              5 ;--------------------------------------------------------
                              6 	.module lcc60480
                              7 	
                              8 ;--------------------------------------------------------
                              9 ; Public variables in this module
                             10 ;--------------------------------------------------------
                             11 	.globl _main
                             12 	.globl _maywalk
                             13 	.globl _walk
                             14 	.globl _display
                             15 	.globl _move_sprite
                             16 	.globl _get_sprite_prop
                             17 	.globl _set_sprite_prop
                             18 	.globl _set_sprite_tile
                             19 	.globl _set_sprite_data
                             20 	.globl _joypad
                             21 	.globl _delay
                             22 	.globl _walkanimation
                             23 	.globl _i
                             24 	.globl _npcy
                             25 	.globl _npcx
                             26 	.globl _walkspeedtype
                             27 	.globl _walkdelay
                             28 	.globl _walkderetion
                             29 	.globl _playery
                             30 	.globl _playerx
                             31 	.globl _playerData
                             32 	.globl _main
                             33 	.globl _maywalk
                             34 	.globl _walk
                             35 	.globl _display
                             36 ;--------------------------------------------------------
                             37 ; Externals used
                             38 ;--------------------------------------------------------
                             39 	.globl _IE_REG
                             40 	.globl _SVBK_REG
                             41 	.globl _OCPD_REG
                             42 	.globl _OCPS_REG
                             43 	.globl _BCPD_REG
                             44 	.globl _BCPS_REG
                             45 	.globl _RP_REG
                             46 	.globl _HDMA5_REG
                             47 	.globl _HDMA4_REG
                             48 	.globl _HDMA3_REG
                             49 	.globl _HDMA2_REG
                             50 	.globl _HDMA1_REG
                             51 	.globl _VBK_REG
                             52 	.globl _KEY1_REG
                             53 	.globl _WX_REG
                             54 	.globl _WY_REG
                             55 	.globl _OBP1_REG
                             56 	.globl _OBP0_REG
                             57 	.globl _BGP_REG
                             58 	.globl _DMA_REG
                             59 	.globl _LYC_REG
                             60 	.globl _LY_REG
                             61 	.globl _SCX_REG
                             62 	.globl _SCY_REG
                             63 	.globl _STAT_REG
                             64 	.globl _LCDC_REG
                             65 	.globl _NR52_REG
                             66 	.globl _NR51_REG
                             67 	.globl _NR50_REG
                             68 	.globl _NR44_REG
                             69 	.globl _NR43_REG
                             70 	.globl _NR42_REG
                             71 	.globl _NR41_REG
                             72 	.globl _NR34_REG
                             73 	.globl _NR33_REG
                             74 	.globl _NR32_REG
                             75 	.globl _NR31_REG
                             76 	.globl _NR30_REG
                             77 	.globl _NR24_REG
                             78 	.globl _NR23_REG
                             79 	.globl _NR22_REG
                             80 	.globl _NR21_REG
                             81 	.globl _NR14_REG
                             82 	.globl _NR13_REG
                             83 	.globl _NR12_REG
                             84 	.globl _NR11_REG
                             85 	.globl _NR10_REG
                             86 	.globl _IF_REG
                             87 	.globl _TAC_REG
                             88 	.globl _TMA_REG
                             89 	.globl _TIMA_REG
                             90 	.globl _DIV_REG
                             91 	.globl _SC_REG
                             92 	.globl _SB_REG
                             93 	.globl _P1_REG
                             94 	.globl __io_out
                             95 	.globl __io_in
                             96 	.globl __io_status
                             97 	.globl _sys_time
                             98 	.globl __cpu
                             99 ;--------------------------------------------------------
                            100 ; special function registers
                            101 ;--------------------------------------------------------
                            102 ;--------------------------------------------------------
                            103 ; special function bits 
                            104 ;--------------------------------------------------------
                            105 ;--------------------------------------------------------
                            106 ; internal ram data
                            107 ;--------------------------------------------------------
                            108 	.area _DATA
   0000                     109 _playerData::
   0000                     110 	.ds 352
   0160                     111 _playerx::
   0160                     112 	.ds 1
   0161                     113 _playery::
   0161                     114 	.ds 1
   0162                     115 _walkderetion::
   0162                     116 	.ds 1
   0163                     117 _walkdelay::
   0163                     118 	.ds 1
   0164                     119 _walkspeedtype::
   0164                     120 	.ds 1
   0165                     121 _npcx::
   0165                     122 	.ds 1
   0166                     123 _npcy::
   0166                     124 	.ds 1
   0167                     125 _i::
   0167                     126 	.ds 1
   0168                     127 _walkanimation::
   0168                     128 	.ds 1
                            129 ;--------------------------------------------------------
                            130 ; overlayable items in internal ram 
                            131 ;--------------------------------------------------------
                            132 	.area _OVERLAY
                            133 ;--------------------------------------------------------
                            134 ; indirectly addressable internal ram data
                            135 ;--------------------------------------------------------
                            136 	.area _ISEG
                            137 ;--------------------------------------------------------
                            138 ; bit data
                            139 ;--------------------------------------------------------
                            140 	.area _BSEG
                            141 ;--------------------------------------------------------
                            142 ; external ram data
                            143 ;--------------------------------------------------------
                            144 	.area _XSEG
                            145 ;--------------------------------------------------------
                            146 ; global & static initialisations
                            147 ;--------------------------------------------------------
                            148 	.area _GSINIT
                            149 	.area _GSFINAL
                            150 	.area _GSINIT
                            151 ;	main.c 327
                            152 ; genAssign (pointer)
   0000 11 00 00            153 	ld	de,#_playerData + 0
   0003 3E 07               154 	ld	a,#0x07
   0005 12                  155 	ld	(de),a
                            156 ; genPlus
                            157 ; genPlusIncr
   0006 11 01 00            158 	ld	de,#_playerData + 0 + 1
                            159 ; genAssign (pointer)
   0009 3E 07               160 	ld	a,#0x07
   000B 12                  161 	ld	(de),a
                            162 ; genPlus
                            163 ; genPlusIncr
   000C 11 02 00            164 	ld	de,#_playerData + 0 + 2
                            165 ; genAssign (pointer)
   000F 3E 08               166 	ld	a,#0x08
   0011 12                  167 	ld	(de),a
                            168 ; genPlus
                            169 ; genPlusIncr
   0012 11 03 00            170 	ld	de,#_playerData + 0 + 3
                            171 ; genAssign (pointer)
   0015 3E 0F               172 	ld	a,#0x0F
   0017 12                  173 	ld	(de),a
                            174 ; genPlus
                            175 ; genPlusIncr
   0018 11 04 00            176 	ld	de,#_playerData + 0 + 4
                            177 ; genAssign (pointer)
   001B 3E 10               178 	ld	a,#0x10
   001D 12                  179 	ld	(de),a
                            180 ; genPlus
                            181 ; genPlusIncr
   001E 11 05 00            182 	ld	de,#_playerData + 0 + 5
                            183 ; genAssign (pointer)
   0021 3E 1F               184 	ld	a,#0x1F
   0023 12                  185 	ld	(de),a
                            186 ; genPlus
                            187 ; genPlusIncr
   0024 11 06 00            188 	ld	de,#_playerData + 0 + 6
                            189 ; genAssign (pointer)
   0027 3E 17               190 	ld	a,#0x17
   0029 12                  191 	ld	(de),a
                            192 ; genPlus
                            193 ; genPlusIncr
   002A 11 07 00            194 	ld	de,#_playerData + 0 + 7
                            195 ; genAssign (pointer)
   002D 3E 1F               196 	ld	a,#0x1F
   002F 12                  197 	ld	(de),a
                            198 ; genPlus
                            199 ; genPlusIncr
   0030 11 08 00            200 	ld	de,#_playerData + 0 + 8
                            201 ; genAssign (pointer)
   0033 3E 3F               202 	ld	a,#0x3F
   0035 12                  203 	ld	(de),a
                            204 ; genPlus
                            205 ; genPlusIncr
   0036 11 09 00            206 	ld	de,#_playerData + 0 + 9
                            207 ; genAssign (pointer)
   0039 3E 2A               208 	ld	a,#0x2A
   003B 12                  209 	ld	(de),a
                            210 ; genPlus
                            211 ; genPlusIncr
   003C 11 0A 00            212 	ld	de,#_playerData + 0 + 10
                            213 ; genAssign (pointer)
   003F 3E 3F               214 	ld	a,#0x3F
   0041 12                  215 	ld	(de),a
                            216 ; genPlus
                            217 ; genPlusIncr
   0042 11 0B 00            218 	ld	de,#_playerData + 0 + 11
                            219 ; genAssign (pointer)
   0045 3E 20               220 	ld	a,#0x20
   0047 12                  221 	ld	(de),a
                            222 ; genPlus
                            223 ; genPlusIncr
   0048 11 0C 00            224 	ld	de,#_playerData + 0 + 12
                            225 ; genAssign (pointer)
   004B 3E 1F               226 	ld	a,#0x1F
   004D 12                  227 	ld	(de),a
                            228 ; genPlus
                            229 ; genPlusIncr
   004E 11 0D 00            230 	ld	de,#_playerData + 0 + 13
                            231 ; genAssign (pointer)
   0051 3E 11               232 	ld	a,#0x11
   0053 12                  233 	ld	(de),a
                            234 ; genPlus
                            235 ; genPlusIncr
   0054 11 0E 00            236 	ld	de,#_playerData + 0 + 14
                            237 ; genAssign (pointer)
   0057 3E 0F               238 	ld	a,#0x0F
   0059 12                  239 	ld	(de),a
                            240 ; genPlus
                            241 ; genPlusIncr
   005A 11 0F 00            242 	ld	de,#_playerData + 0 + 15
                            243 ; genAssign (pointer)
   005D 3E 08               244 	ld	a,#0x08
   005F 12                  245 	ld	(de),a
                            246 ; genPlus
                            247 ; genPlusIncr
   0060 11 10 00            248 	ld	de,#_playerData + 0 + 16
                            249 ; genAssign (pointer)
   0063 3E 07               250 	ld	a,#0x07
   0065 12                  251 	ld	(de),a
                            252 ; genPlus
                            253 ; genPlusIncr
   0066 11 11 00            254 	ld	de,#_playerData + 0 + 17
                            255 ; genAssign (pointer)
   0069 3E 07               256 	ld	a,#0x07
   006B 12                  257 	ld	(de),a
                            258 ; genPlus
                            259 ; genPlusIncr
   006C 11 12 00            260 	ld	de,#_playerData + 0 + 18
                            261 ; genAssign (pointer)
   006F 3E 18               262 	ld	a,#0x18
   0071 12                  263 	ld	(de),a
                            264 ; genPlus
                            265 ; genPlusIncr
   0072 11 13 00            266 	ld	de,#_playerData + 0 + 19
                            267 ; genAssign (pointer)
   0075 3E 1F               268 	ld	a,#0x1F
   0077 12                  269 	ld	(de),a
                            270 ; genPlus
                            271 ; genPlusIncr
   0078 11 14 00            272 	ld	de,#_playerData + 0 + 20
                            273 ; genAssign (pointer)
   007B 3E 3F               274 	ld	a,#0x3F
   007D 12                  275 	ld	(de),a
                            276 ; genPlus
                            277 ; genPlusIncr
   007E 11 15 00            278 	ld	de,#_playerData + 0 + 21
                            279 ; genAssign (pointer)
   0081 3E 24               280 	ld	a,#0x24
   0083 12                  281 	ld	(de),a
                            282 ; genPlus
                            283 ; genPlusIncr
   0084 11 16 00            284 	ld	de,#_playerData + 0 + 22
                            285 ; genAssign (pointer)
   0087 3E 3C               286 	ld	a,#0x3C
   0089 12                  287 	ld	(de),a
                            288 ; genPlus
                            289 ; genPlusIncr
   008A 11 17 00            290 	ld	de,#_playerData + 0 + 23
                            291 ; genAssign (pointer)
   008D 3E 27               292 	ld	a,#0x27
   008F 12                  293 	ld	(de),a
                            294 ; genPlus
                            295 ; genPlusIncr
   0090 11 18 00            296 	ld	de,#_playerData + 0 + 24
                            297 ; genAssign (pointer)
   0093 3E 1F               298 	ld	a,#0x1F
   0095 12                  299 	ld	(de),a
                            300 ; genPlus
                            301 ; genPlusIncr
   0096 11 19 00            302 	ld	de,#_playerData + 0 + 25
                            303 ; genAssign (pointer)
   0099 3E 18               304 	ld	a,#0x18
   009B 12                  305 	ld	(de),a
                            306 ; genPlus
                            307 ; genPlusIncr
   009C 11 1A 00            308 	ld	de,#_playerData + 0 + 26
                            309 ; genAssign (pointer)
   009F 3E 0F               310 	ld	a,#0x0F
   00A1 12                  311 	ld	(de),a
                            312 ; genPlus
                            313 ; genPlusIncr
   00A2 11 1B 00            314 	ld	de,#_playerData + 0 + 27
                            315 ; genAssign (pointer)
   00A5 3E 0F               316 	ld	a,#0x0F
   00A7 12                  317 	ld	(de),a
                            318 ; genPlus
                            319 ; genPlusIncr
   00A8 11 1C 00            320 	ld	de,#_playerData + 0 + 28
                            321 ; genAssign (pointer)
   00AB 3E 09               322 	ld	a,#0x09
   00AD 12                  323 	ld	(de),a
                            324 ; genPlus
                            325 ; genPlusIncr
   00AE 11 1D 00            326 	ld	de,#_playerData + 0 + 29
                            327 ; genAssign (pointer)
   00B1 3E 0F               328 	ld	a,#0x0F
   00B3 12                  329 	ld	(de),a
                            330 ; genPlus
                            331 ; genPlusIncr
   00B4 11 1E 00            332 	ld	de,#_playerData + 0 + 30
                            333 ; genAssign (pointer)
   00B7 3E 06               334 	ld	a,#0x06
   00B9 12                  335 	ld	(de),a
                            336 ; genPlus
                            337 ; genPlusIncr
   00BA 11 1F 00            338 	ld	de,#_playerData + 0 + 31
                            339 ; genAssign (pointer)
   00BD 3E 06               340 	ld	a,#0x06
   00BF 12                  341 	ld	(de),a
                            342 ; genPlus
                            343 ; genPlusIncr
   00C0 11 20 00            344 	ld	de,#_playerData + 0 + 32
                            345 ; genAssign (pointer)
   00C3 3E E0               346 	ld	a,#0xE0
   00C5 12                  347 	ld	(de),a
                            348 ; genPlus
                            349 ; genPlusIncr
   00C6 11 21 00            350 	ld	de,#_playerData + 0 + 33
                            351 ; genAssign (pointer)
   00C9 3E E0               352 	ld	a,#0xE0
   00CB 12                  353 	ld	(de),a
                            354 ; genPlus
                            355 ; genPlusIncr
   00CC 11 22 00            356 	ld	de,#_playerData + 0 + 34
                            357 ; genAssign (pointer)
   00CF 3E 10               358 	ld	a,#0x10
   00D1 12                  359 	ld	(de),a
                            360 ; genPlus
                            361 ; genPlusIncr
   00D2 11 23 00            362 	ld	de,#_playerData + 0 + 35
                            363 ; genAssign (pointer)
   00D5 3E F0               364 	ld	a,#0xF0
   00D7 12                  365 	ld	(de),a
                            366 ; genPlus
                            367 ; genPlusIncr
   00D8 11 24 00            368 	ld	de,#_playerData + 0 + 36
                            369 ; genAssign (pointer)
   00DB 3E C8               370 	ld	a,#0xC8
   00DD 12                  371 	ld	(de),a
                            372 ; genPlus
                            373 ; genPlusIncr
   00DE 11 25 00            374 	ld	de,#_playerData + 0 + 37
                            375 ; genAssign (pointer)
   00E1 3E F8               376 	ld	a,#0xF8
   00E3 12                  377 	ld	(de),a
                            378 ; genPlus
                            379 ; genPlusIncr
   00E4 11 26 00            380 	ld	de,#_playerData + 0 + 38
                            381 ; genAssign (pointer)
   00E7 3E E8               382 	ld	a,#0xE8
   00E9 12                  383 	ld	(de),a
                            384 ; genPlus
                            385 ; genPlusIncr
   00EA 11 27 00            386 	ld	de,#_playerData + 0 + 39
                            387 ; genAssign (pointer)
   00ED 3E 38               388 	ld	a,#0x38
   00EF 12                  389 	ld	(de),a
                            390 ; genPlus
                            391 ; genPlusIncr
   00F0 11 28 00            392 	ld	de,#_playerData + 0 + 40
                            393 ; genAssign (pointer)
   00F3 3E FC               394 	ld	a,#0xFC
   00F5 12                  395 	ld	(de),a
                            396 ; genPlus
                            397 ; genPlusIncr
   00F6 11 29 00            398 	ld	de,#_playerData + 0 + 41
                            399 ; genAssign (pointer)
   00F9 3E 54               400 	ld	a,#0x54
   00FB 12                  401 	ld	(de),a
                            402 ; genPlus
                            403 ; genPlusIncr
   00FC 11 2A 00            404 	ld	de,#_playerData + 0 + 42
                            405 ; genAssign (pointer)
   00FF 3E FC               406 	ld	a,#0xFC
   0101 12                  407 	ld	(de),a
                            408 ; genPlus
                            409 ; genPlusIncr
   0102 11 2B 00            410 	ld	de,#_playerData + 0 + 43
                            411 ; genAssign (pointer)
   0105 3E 04               412 	ld	a,#0x04
   0107 12                  413 	ld	(de),a
                            414 ; genPlus
                            415 ; genPlusIncr
   0108 11 2C 00            416 	ld	de,#_playerData + 0 + 44
                            417 ; genAssign (pointer)
   010B 3E F8               418 	ld	a,#0xF8
   010D 12                  419 	ld	(de),a
                            420 ; genPlus
                            421 ; genPlusIncr
   010E 11 2D 00            422 	ld	de,#_playerData + 0 + 45
                            423 ; genAssign (pointer)
   0111 3E 88               424 	ld	a,#0x88
   0113 12                  425 	ld	(de),a
                            426 ; genPlus
                            427 ; genPlusIncr
   0114 11 2E 00            428 	ld	de,#_playerData + 0 + 46
                            429 ; genAssign (pointer)
   0117 3E F0               430 	ld	a,#0xF0
   0119 12                  431 	ld	(de),a
                            432 ; genPlus
                            433 ; genPlusIncr
   011A 11 2F 00            434 	ld	de,#_playerData + 0 + 47
                            435 ; genAssign (pointer)
   011D 3E 10               436 	ld	a,#0x10
   011F 12                  437 	ld	(de),a
                            438 ; genPlus
                            439 ; genPlusIncr
   0120 11 30 00            440 	ld	de,#_playerData + 0 + 48
                            441 ; genAssign (pointer)
   0123 3E E0               442 	ld	a,#0xE0
   0125 12                  443 	ld	(de),a
                            444 ; genPlus
                            445 ; genPlusIncr
   0126 11 31 00            446 	ld	de,#_playerData + 0 + 49
                            447 ; genAssign (pointer)
   0129 3E E0               448 	ld	a,#0xE0
   012B 12                  449 	ld	(de),a
                            450 ; genPlus
                            451 ; genPlusIncr
   012C 11 32 00            452 	ld	de,#_playerData + 0 + 50
                            453 ; genAssign (pointer)
   012F 3E 18               454 	ld	a,#0x18
   0131 12                  455 	ld	(de),a
                            456 ; genPlus
                            457 ; genPlusIncr
   0132 11 33 00            458 	ld	de,#_playerData + 0 + 51
                            459 ; genAssign (pointer)
   0135 3E F8               460 	ld	a,#0xF8
   0137 12                  461 	ld	(de),a
                            462 ; genPlus
                            463 ; genPlusIncr
   0138 11 34 00            464 	ld	de,#_playerData + 0 + 52
                            465 ; genAssign (pointer)
   013B 3E FC               466 	ld	a,#0xFC
   013D 12                  467 	ld	(de),a
                            468 ; genPlus
                            469 ; genPlusIncr
   013E 11 35 00            470 	ld	de,#_playerData + 0 + 53
                            471 ; genAssign (pointer)
   0141 3E 24               472 	ld	a,#0x24
   0143 12                  473 	ld	(de),a
                            474 ; genPlus
                            475 ; genPlusIncr
   0144 11 36 00            476 	ld	de,#_playerData + 0 + 54
                            477 ; genAssign (pointer)
   0147 3E 3C               478 	ld	a,#0x3C
   0149 12                  479 	ld	(de),a
                            480 ; genPlus
                            481 ; genPlusIncr
   014A 11 37 00            482 	ld	de,#_playerData + 0 + 55
                            483 ; genAssign (pointer)
   014D 3E E4               484 	ld	a,#0xE4
   014F 12                  485 	ld	(de),a
                            486 ; genPlus
                            487 ; genPlusIncr
   0150 11 38 00            488 	ld	de,#_playerData + 0 + 56
                            489 ; genAssign (pointer)
   0153 3E F8               490 	ld	a,#0xF8
   0155 12                  491 	ld	(de),a
                            492 ; genPlus
                            493 ; genPlusIncr
   0156 11 39 00            494 	ld	de,#_playerData + 0 + 57
                            495 ; genAssign (pointer)
   0159 3E 18               496 	ld	a,#0x18
   015B 12                  497 	ld	(de),a
                            498 ; genPlus
                            499 ; genPlusIncr
   015C 11 3A 00            500 	ld	de,#_playerData + 0 + 58
                            501 ; genAssign (pointer)
   015F 3E F0               502 	ld	a,#0xF0
   0161 12                  503 	ld	(de),a
                            504 ; genPlus
                            505 ; genPlusIncr
   0162 11 3B 00            506 	ld	de,#_playerData + 0 + 59
                            507 ; genAssign (pointer)
   0165 3E F0               508 	ld	a,#0xF0
   0167 12                  509 	ld	(de),a
                            510 ; genPlus
                            511 ; genPlusIncr
   0168 11 3C 00            512 	ld	de,#_playerData + 0 + 60
                            513 ; genAssign (pointer)
   016B 3E 90               514 	ld	a,#0x90
   016D 12                  515 	ld	(de),a
                            516 ; genPlus
                            517 ; genPlusIncr
   016E 11 3D 00            518 	ld	de,#_playerData + 0 + 61
                            519 ; genAssign (pointer)
   0171 3E F0               520 	ld	a,#0xF0
   0173 12                  521 	ld	(de),a
                            522 ; genPlus
                            523 ; genPlusIncr
   0174 11 3E 00            524 	ld	de,#_playerData + 0 + 62
                            525 ; genAssign (pointer)
   0177 3E 60               526 	ld	a,#0x60
   0179 12                  527 	ld	(de),a
                            528 ; genPlus
                            529 ; genPlusIncr
   017A 11 3F 00            530 	ld	de,#_playerData + 0 + 63
                            531 ; genAssign (pointer)
   017D 3E 60               532 	ld	a,#0x60
   017F 12                  533 	ld	(de),a
                            534 ; genPlus
                            535 ; genPlusIncr
   0180 11 40 00            536 	ld	de,#_playerData + 0 + 64
                            537 ; genAssign (pointer)
   0183 3E 07               538 	ld	a,#0x07
   0185 12                  539 	ld	(de),a
                            540 ; genPlus
                            541 ; genPlusIncr
   0186 11 41 00            542 	ld	de,#_playerData + 0 + 65
                            543 ; genAssign (pointer)
   0189 3E 07               544 	ld	a,#0x07
   018B 12                  545 	ld	(de),a
                            546 ; genPlus
                            547 ; genPlusIncr
   018C 11 42 00            548 	ld	de,#_playerData + 0 + 66
                            549 ; genAssign (pointer)
   018F 3E 0C               550 	ld	a,#0x0C
   0191 12                  551 	ld	(de),a
                            552 ; genPlus
                            553 ; genPlusIncr
   0192 11 43 00            554 	ld	de,#_playerData + 0 + 67
                            555 ; genAssign (pointer)
   0195 3E 0F               556 	ld	a,#0x0F
   0197 12                  557 	ld	(de),a
                            558 ; genPlus
                            559 ; genPlusIncr
   0198 11 44 00            560 	ld	de,#_playerData + 0 + 68
                            561 ; genAssign (pointer)
   019B 3E 1F               562 	ld	a,#0x1F
   019D 12                  563 	ld	(de),a
                            564 ; genPlus
                            565 ; genPlusIncr
   019E 11 45 00            566 	ld	de,#_playerData + 0 + 69
                            567 ; genAssign (pointer)
   01A1 3E 12               568 	ld	a,#0x12
   01A3 12                  569 	ld	(de),a
                            570 ; genPlus
                            571 ; genPlusIncr
   01A4 11 46 00            572 	ld	de,#_playerData + 0 + 70
                            573 ; genAssign (pointer)
   01A7 3E 1E               574 	ld	a,#0x1E
   01A9 12                  575 	ld	(de),a
                            576 ; genPlus
                            577 ; genPlusIncr
   01AA 11 47 00            578 	ld	de,#_playerData + 0 + 71
                            579 ; genAssign (pointer)
   01AD 3E 13               580 	ld	a,#0x13
   01AF 12                  581 	ld	(de),a
                            582 ; genPlus
                            583 ; genPlusIncr
   01B0 11 48 00            584 	ld	de,#_playerData + 0 + 72
                            585 ; genAssign (pointer)
   01B3 3E 0F               586 	ld	a,#0x0F
   01B5 12                  587 	ld	(de),a
                            588 ; genPlus
                            589 ; genPlusIncr
   01B6 11 49 00            590 	ld	de,#_playerData + 0 + 73
                            591 ; genAssign (pointer)
   01B9 3E 0C               592 	ld	a,#0x0C
   01BB 12                  593 	ld	(de),a
                            594 ; genPlus
                            595 ; genPlusIncr
   01BC 11 4A 00            596 	ld	de,#_playerData + 0 + 74
                            597 ; genAssign (pointer)
   01BF 3E 0F               598 	ld	a,#0x0F
   01C1 12                  599 	ld	(de),a
                            600 ; genPlus
                            601 ; genPlusIncr
   01C2 11 4B 00            602 	ld	de,#_playerData + 0 + 75
                            603 ; genAssign (pointer)
   01C5 3E 0F               604 	ld	a,#0x0F
   01C7 12                  605 	ld	(de),a
                            606 ; genPlus
                            607 ; genPlusIncr
   01C8 11 4C 00            608 	ld	de,#_playerData + 0 + 76
                            609 ; genAssign (pointer)
   01CB 3E 09               610 	ld	a,#0x09
   01CD 12                  611 	ld	(de),a
                            612 ; genPlus
                            613 ; genPlusIncr
   01CE 11 4D 00            614 	ld	de,#_playerData + 0 + 77
                            615 ; genAssign (pointer)
   01D1 3E 0F               616 	ld	a,#0x0F
   01D3 12                  617 	ld	(de),a
                            618 ; genPlus
                            619 ; genPlusIncr
   01D4 11 4E 00            620 	ld	de,#_playerData + 0 + 78
                            621 ; genAssign (pointer)
   01D7 3E 06               622 	ld	a,#0x06
   01D9 12                  623 	ld	(de),a
                            624 ; genPlus
                            625 ; genPlusIncr
   01DA 11 4F 00            626 	ld	de,#_playerData + 0 + 79
                            627 ; genAssign (pointer)
   01DD 3E 06               628 	ld	a,#0x06
   01DF 12                  629 	ld	(de),a
                            630 ; genPlus
                            631 ; genPlusIncr
   01E0 11 50 00            632 	ld	de,#_playerData + 0 + 80
                            633 ; genAssign (pointer)
   01E3 3E E8               634 	ld	a,#0xE8
   01E5 12                  635 	ld	(de),a
                            636 ; genPlus
                            637 ; genPlusIncr
   01E6 11 51 00            638 	ld	de,#_playerData + 0 + 81
                            639 ; genAssign (pointer)
   01E9 3E E8               640 	ld	a,#0xE8
   01EB 12                  641 	ld	(de),a
                            642 ; genPlus
                            643 ; genPlusIncr
   01EC 11 52 00            644 	ld	de,#_playerData + 0 + 82
                            645 ; genAssign (pointer)
   01EF 3E 1C               646 	ld	a,#0x1C
   01F1 12                  647 	ld	(de),a
                            648 ; genPlus
                            649 ; genPlusIncr
   01F2 11 53 00            650 	ld	de,#_playerData + 0 + 83
                            651 ; genAssign (pointer)
   01F5 3E F4               652 	ld	a,#0xF4
   01F7 12                  653 	ld	(de),a
                            654 ; genPlus
                            655 ; genPlusIncr
   01F8 11 54 00            656 	ld	de,#_playerData + 0 + 84
                            657 ; genAssign (pointer)
   01FB 3E FC               658 	ld	a,#0xFC
   01FD 12                  659 	ld	(de),a
                            660 ; genPlus
                            661 ; genPlusIncr
   01FE 11 55 00            662 	ld	de,#_playerData + 0 + 85
                            663 ; genAssign (pointer)
   0201 3E 14               664 	ld	a,#0x14
   0203 12                  665 	ld	(de),a
                            666 ; genPlus
                            667 ; genPlusIncr
   0204 11 56 00            668 	ld	de,#_playerData + 0 + 86
                            669 ; genAssign (pointer)
   0207 3E 18               670 	ld	a,#0x18
   0209 12                  671 	ld	(de),a
                            672 ; genPlus
                            673 ; genPlusIncr
   020A 11 57 00            674 	ld	de,#_playerData + 0 + 87
                            675 ; genAssign (pointer)
   020D 3E F8               676 	ld	a,#0xF8
   020F 12                  677 	ld	(de),a
                            678 ; genPlus
                            679 ; genPlusIncr
   0210 11 58 00            680 	ld	de,#_playerData + 0 + 88
                            681 ; genAssign (pointer)
   0213 3E F0               682 	ld	a,#0xF0
   0215 12                  683 	ld	(de),a
                            684 ; genPlus
                            685 ; genPlusIncr
   0216 11 59 00            686 	ld	de,#_playerData + 0 + 89
                            687 ; genAssign (pointer)
   0219 3E 10               688 	ld	a,#0x10
   021B 12                  689 	ld	(de),a
                            690 ; genPlus
                            691 ; genPlusIncr
   021C 11 5A 00            692 	ld	de,#_playerData + 0 + 90
                            693 ; genAssign (pointer)
   021F 3E F0               694 	ld	a,#0xF0
   0221 12                  695 	ld	(de),a
                            696 ; genPlus
                            697 ; genPlusIncr
   0222 11 5B 00            698 	ld	de,#_playerData + 0 + 91
                            699 ; genAssign (pointer)
   0225 3E F0               700 	ld	a,#0xF0
   0227 12                  701 	ld	(de),a
                            702 ; genPlus
                            703 ; genPlusIncr
   0228 11 5C 00            704 	ld	de,#_playerData + 0 + 92
                            705 ; genAssign (pointer)
   022B 3E 60               706 	ld	a,#0x60
   022D 12                  707 	ld	(de),a
                            708 ; genPlus
                            709 ; genPlusIncr
   022E 11 5D 00            710 	ld	de,#_playerData + 0 + 93
                            711 ; genAssign (pointer)
   0231 3E 60               712 	ld	a,#0x60
   0233 12                  713 	ld	(de),a
                            714 ; genPlus
                            715 ; genPlusIncr
   0234 11 5E 00            716 	ld	de,#_playerData + 0 + 94
                            717 ; genAssign (pointer)
   0237 3E 00               718 	ld	a,#0x00
   0239 12                  719 	ld	(de),a
                            720 ; genPlus
                            721 ; genPlusIncr
   023A 11 5F 00            722 	ld	de,#_playerData + 0 + 95
                            723 ; genAssign (pointer)
   023D 3E 00               724 	ld	a,#0x00
   023F 12                  725 	ld	(de),a
                            726 ; genPlus
                            727 ; genPlusIncr
   0240 11 60 00            728 	ld	de,#_playerData + 0 + 96
                            729 ; genAssign (pointer)
   0243 3E 07               730 	ld	a,#0x07
   0245 12                  731 	ld	(de),a
                            732 ; genPlus
                            733 ; genPlusIncr
   0246 11 61 00            734 	ld	de,#_playerData + 0 + 97
                            735 ; genAssign (pointer)
   0249 3E 07               736 	ld	a,#0x07
   024B 12                  737 	ld	(de),a
                            738 ; genPlus
                            739 ; genPlusIncr
   024C 11 62 00            740 	ld	de,#_playerData + 0 + 98
                            741 ; genAssign (pointer)
   024F 3E 08               742 	ld	a,#0x08
   0251 12                  743 	ld	(de),a
                            744 ; genPlus
                            745 ; genPlusIncr
   0252 11 63 00            746 	ld	de,#_playerData + 0 + 99
                            747 ; genAssign (pointer)
   0255 3E 0F               748 	ld	a,#0x0F
   0257 12                  749 	ld	(de),a
                            750 ; genPlus
                            751 ; genPlusIncr
   0258 11 64 00            752 	ld	de,#_playerData + 0 + 100
                            753 ; genAssign (pointer)
   025B 3E 10               754 	ld	a,#0x10
   025D 12                  755 	ld	(de),a
                            756 ; genPlus
                            757 ; genPlusIncr
   025E 11 65 00            758 	ld	de,#_playerData + 0 + 101
                            759 ; genAssign (pointer)
   0261 3E 1F               760 	ld	a,#0x1F
   0263 12                  761 	ld	(de),a
                            762 ; genPlus
                            763 ; genPlusIncr
   0264 11 66 00            764 	ld	de,#_playerData + 0 + 102
                            765 ; genAssign (pointer)
   0267 3E 10               766 	ld	a,#0x10
   0269 12                  767 	ld	(de),a
                            768 ; genPlus
                            769 ; genPlusIncr
   026A 11 67 00            770 	ld	de,#_playerData + 0 + 103
                            771 ; genAssign (pointer)
   026D 3E 1F               772 	ld	a,#0x1F
   026F 12                  773 	ld	(de),a
                            774 ; genPlus
                            775 ; genPlusIncr
   0270 11 68 00            776 	ld	de,#_playerData + 0 + 104
                            777 ; genAssign (pointer)
   0273 3E 3E               778 	ld	a,#0x3E
   0275 12                  779 	ld	(de),a
                            780 ; genPlus
                            781 ; genPlusIncr
   0276 11 69 00            782 	ld	de,#_playerData + 0 + 105
                            783 ; genAssign (pointer)
   0279 3E 2F               784 	ld	a,#0x2F
   027B 12                  785 	ld	(de),a
                            786 ; genPlus
                            787 ; genPlusIncr
   027C 11 6A 00            788 	ld	de,#_playerData + 0 + 106
                            789 ; genAssign (pointer)
   027F 3E 3F               790 	ld	a,#0x3F
   0281 12                  791 	ld	(de),a
                            792 ; genPlus
                            793 ; genPlusIncr
   0282 11 6B 00            794 	ld	de,#_playerData + 0 + 107
                            795 ; genAssign (pointer)
   0285 3E 21               796 	ld	a,#0x21
   0287 12                  797 	ld	(de),a
                            798 ; genPlus
                            799 ; genPlusIncr
   0288 11 6C 00            800 	ld	de,#_playerData + 0 + 108
                            801 ; genAssign (pointer)
   028B 3E 1F               802 	ld	a,#0x1F
   028D 12                  803 	ld	(de),a
                            804 ; genPlus
                            805 ; genPlusIncr
   028E 11 6D 00            806 	ld	de,#_playerData + 0 + 109
                            807 ; genAssign (pointer)
   0291 3E 10               808 	ld	a,#0x10
   0293 12                  809 	ld	(de),a
                            810 ; genPlus
                            811 ; genPlusIncr
   0294 11 6E 00            812 	ld	de,#_playerData + 0 + 110
                            813 ; genAssign (pointer)
   0297 3E 0F               814 	ld	a,#0x0F
   0299 12                  815 	ld	(de),a
                            816 ; genPlus
                            817 ; genPlusIncr
   029A 11 6F 00            818 	ld	de,#_playerData + 0 + 111
                            819 ; genAssign (pointer)
   029D 3E 08               820 	ld	a,#0x08
   029F 12                  821 	ld	(de),a
                            822 ; genPlus
                            823 ; genPlusIncr
   02A0 11 70 00            824 	ld	de,#_playerData + 0 + 112
                            825 ; genAssign (pointer)
   02A3 3E 07               826 	ld	a,#0x07
   02A5 12                  827 	ld	(de),a
                            828 ; genPlus
                            829 ; genPlusIncr
   02A6 11 71 00            830 	ld	de,#_playerData + 0 + 113
                            831 ; genAssign (pointer)
   02A9 3E 07               832 	ld	a,#0x07
   02AB 12                  833 	ld	(de),a
                            834 ; genPlus
                            835 ; genPlusIncr
   02AC 11 72 00            836 	ld	de,#_playerData + 0 + 114
                            837 ; genAssign (pointer)
   02AF 3E 18               838 	ld	a,#0x18
   02B1 12                  839 	ld	(de),a
                            840 ; genPlus
                            841 ; genPlusIncr
   02B2 11 73 00            842 	ld	de,#_playerData + 0 + 115
                            843 ; genAssign (pointer)
   02B5 3E 1F               844 	ld	a,#0x1F
   02B7 12                  845 	ld	(de),a
                            846 ; genPlus
                            847 ; genPlusIncr
   02B8 11 74 00            848 	ld	de,#_playerData + 0 + 116
                            849 ; genAssign (pointer)
   02BB 3E 3F               850 	ld	a,#0x3F
   02BD 12                  851 	ld	(de),a
                            852 ; genPlus
                            853 ; genPlusIncr
   02BE 11 75 00            854 	ld	de,#_playerData + 0 + 117
                            855 ; genAssign (pointer)
   02C1 3E 28               856 	ld	a,#0x28
   02C3 12                  857 	ld	(de),a
                            858 ; genPlus
                            859 ; genPlusIncr
   02C4 11 76 00            860 	ld	de,#_playerData + 0 + 118
                            861 ; genAssign (pointer)
   02C7 3E 38               862 	ld	a,#0x38
   02C9 12                  863 	ld	(de),a
                            864 ; genPlus
                            865 ; genPlusIncr
   02CA 11 77 00            866 	ld	de,#_playerData + 0 + 119
                            867 ; genAssign (pointer)
   02CD 3E 2F               868 	ld	a,#0x2F
   02CF 12                  869 	ld	(de),a
                            870 ; genPlus
                            871 ; genPlusIncr
   02D0 11 78 00            872 	ld	de,#_playerData + 0 + 120
                            873 ; genAssign (pointer)
   02D3 3E 1F               874 	ld	a,#0x1F
   02D5 12                  875 	ld	(de),a
                            876 ; genPlus
                            877 ; genPlusIncr
   02D6 11 79 00            878 	ld	de,#_playerData + 0 + 121
                            879 ; genAssign (pointer)
   02D9 3E 18               880 	ld	a,#0x18
   02DB 12                  881 	ld	(de),a
                            882 ; genPlus
                            883 ; genPlusIncr
   02DC 11 7A 00            884 	ld	de,#_playerData + 0 + 122
                            885 ; genAssign (pointer)
   02DF 3E 0F               886 	ld	a,#0x0F
   02E1 12                  887 	ld	(de),a
                            888 ; genPlus
                            889 ; genPlusIncr
   02E2 11 7B 00            890 	ld	de,#_playerData + 0 + 123
                            891 ; genAssign (pointer)
   02E5 3E 0F               892 	ld	a,#0x0F
   02E7 12                  893 	ld	(de),a
                            894 ; genPlus
                            895 ; genPlusIncr
   02E8 11 7C 00            896 	ld	de,#_playerData + 0 + 124
                            897 ; genAssign (pointer)
   02EB 3E 09               898 	ld	a,#0x09
   02ED 12                  899 	ld	(de),a
                            900 ; genPlus
                            901 ; genPlusIncr
   02EE 11 7D 00            902 	ld	de,#_playerData + 0 + 125
                            903 ; genAssign (pointer)
   02F1 3E 0F               904 	ld	a,#0x0F
   02F3 12                  905 	ld	(de),a
                            906 ; genPlus
                            907 ; genPlusIncr
   02F4 11 7E 00            908 	ld	de,#_playerData + 0 + 126
                            909 ; genAssign (pointer)
   02F7 3E 06               910 	ld	a,#0x06
   02F9 12                  911 	ld	(de),a
                            912 ; genPlus
                            913 ; genPlusIncr
   02FA 11 7F 00            914 	ld	de,#_playerData + 0 + 127
                            915 ; genAssign (pointer)
   02FD 3E 06               916 	ld	a,#0x06
   02FF 12                  917 	ld	(de),a
                            918 ; genPlus
                            919 ; genPlusIncr
   0300 11 80 00            920 	ld	de,#_playerData + 0 + 128
                            921 ; genAssign (pointer)
   0303 3E E0               922 	ld	a,#0xE0
   0305 12                  923 	ld	(de),a
                            924 ; genPlus
                            925 ; genPlusIncr
   0306 11 81 00            926 	ld	de,#_playerData + 0 + 129
                            927 ; genAssign (pointer)
   0309 3E E0               928 	ld	a,#0xE0
   030B 12                  929 	ld	(de),a
                            930 ; genPlus
                            931 ; genPlusIncr
   030C 11 82 00            932 	ld	de,#_playerData + 0 + 130
                            933 ; genAssign (pointer)
   030F 3E 10               934 	ld	a,#0x10
   0311 12                  935 	ld	(de),a
                            936 ; genPlus
                            937 ; genPlusIncr
   0312 11 83 00            938 	ld	de,#_playerData + 0 + 131
                            939 ; genAssign (pointer)
   0315 3E F0               940 	ld	a,#0xF0
   0317 12                  941 	ld	(de),a
                            942 ; genPlus
                            943 ; genPlusIncr
   0318 11 84 00            944 	ld	de,#_playerData + 0 + 132
                            945 ; genAssign (pointer)
   031B 3E 08               946 	ld	a,#0x08
   031D 12                  947 	ld	(de),a
                            948 ; genPlus
                            949 ; genPlusIncr
   031E 11 85 00            950 	ld	de,#_playerData + 0 + 133
                            951 ; genAssign (pointer)
   0321 3E F8               952 	ld	a,#0xF8
   0323 12                  953 	ld	(de),a
                            954 ; genPlus
                            955 ; genPlusIncr
   0324 11 86 00            956 	ld	de,#_playerData + 0 + 134
                            957 ; genAssign (pointer)
   0327 3E 08               958 	ld	a,#0x08
   0329 12                  959 	ld	(de),a
                            960 ; genPlus
                            961 ; genPlusIncr
   032A 11 87 00            962 	ld	de,#_playerData + 0 + 135
                            963 ; genAssign (pointer)
   032D 3E F8               964 	ld	a,#0xF8
   032F 12                  965 	ld	(de),a
                            966 ; genPlus
                            967 ; genPlusIncr
   0330 11 88 00            968 	ld	de,#_playerData + 0 + 136
                            969 ; genAssign (pointer)
   0333 3E 3C               970 	ld	a,#0x3C
   0335 12                  971 	ld	(de),a
                            972 ; genPlus
                            973 ; genPlusIncr
   0336 11 89 00            974 	ld	de,#_playerData + 0 + 137
                            975 ; genAssign (pointer)
   0339 3E F4               976 	ld	a,#0xF4
   033B 12                  977 	ld	(de),a
                            978 ; genPlus
                            979 ; genPlusIncr
   033C 11 8A 00            980 	ld	de,#_playerData + 0 + 138
                            981 ; genAssign (pointer)
   033F 3E FC               982 	ld	a,#0xFC
   0341 12                  983 	ld	(de),a
                            984 ; genPlus
                            985 ; genPlusIncr
   0342 11 8B 00            986 	ld	de,#_playerData + 0 + 139
                            987 ; genAssign (pointer)
   0345 3E C4               988 	ld	a,#0xC4
   0347 12                  989 	ld	(de),a
                            990 ; genPlus
                            991 ; genPlusIncr
   0348 11 8C 00            992 	ld	de,#_playerData + 0 + 140
                            993 ; genAssign (pointer)
   034B 3E F8               994 	ld	a,#0xF8
   034D 12                  995 	ld	(de),a
                            996 ; genPlus
                            997 ; genPlusIncr
   034E 11 8D 00            998 	ld	de,#_playerData + 0 + 141
                            999 ; genAssign (pointer)
   0351 3E 08              1000 	ld	a,#0x08
   0353 12                 1001 	ld	(de),a
                           1002 ; genPlus
                           1003 ; genPlusIncr
   0354 11 8E 00           1004 	ld	de,#_playerData + 0 + 142
                           1005 ; genAssign (pointer)
   0357 3E F0              1006 	ld	a,#0xF0
   0359 12                 1007 	ld	(de),a
                           1008 ; genPlus
                           1009 ; genPlusIncr
   035A 11 8F 00           1010 	ld	de,#_playerData + 0 + 143
                           1011 ; genAssign (pointer)
   035D 3E 10              1012 	ld	a,#0x10
   035F 12                 1013 	ld	(de),a
                           1014 ; genPlus
                           1015 ; genPlusIncr
   0360 11 90 00           1016 	ld	de,#_playerData + 0 + 144
                           1017 ; genAssign (pointer)
   0363 3E E0              1018 	ld	a,#0xE0
   0365 12                 1019 	ld	(de),a
                           1020 ; genPlus
                           1021 ; genPlusIncr
   0366 11 91 00           1022 	ld	de,#_playerData + 0 + 145
                           1023 ; genAssign (pointer)
   0369 3E E0              1024 	ld	a,#0xE0
   036B 12                 1025 	ld	(de),a
                           1026 ; genPlus
                           1027 ; genPlusIncr
   036C 11 92 00           1028 	ld	de,#_playerData + 0 + 146
                           1029 ; genAssign (pointer)
   036F 3E 18              1030 	ld	a,#0x18
   0371 12                 1031 	ld	(de),a
                           1032 ; genPlus
                           1033 ; genPlusIncr
   0372 11 93 00           1034 	ld	de,#_playerData + 0 + 147
                           1035 ; genAssign (pointer)
   0375 3E F8              1036 	ld	a,#0xF8
   0377 12                 1037 	ld	(de),a
                           1038 ; genPlus
                           1039 ; genPlusIncr
   0378 11 94 00           1040 	ld	de,#_playerData + 0 + 148
                           1041 ; genAssign (pointer)
   037B 3E FC              1042 	ld	a,#0xFC
   037D 12                 1043 	ld	(de),a
                           1044 ; genPlus
                           1045 ; genPlusIncr
   037E 11 95 00           1046 	ld	de,#_playerData + 0 + 149
                           1047 ; genAssign (pointer)
   0381 3E 14              1048 	ld	a,#0x14
   0383 12                 1049 	ld	(de),a
                           1050 ; genPlus
                           1051 ; genPlusIncr
   0384 11 96 00           1052 	ld	de,#_playerData + 0 + 150
                           1053 ; genAssign (pointer)
   0387 3E 1C              1054 	ld	a,#0x1C
   0389 12                 1055 	ld	(de),a
                           1056 ; genPlus
                           1057 ; genPlusIncr
   038A 11 97 00           1058 	ld	de,#_playerData + 0 + 151
                           1059 ; genAssign (pointer)
   038D 3E F4              1060 	ld	a,#0xF4
   038F 12                 1061 	ld	(de),a
                           1062 ; genPlus
                           1063 ; genPlusIncr
   0390 11 98 00           1064 	ld	de,#_playerData + 0 + 152
                           1065 ; genAssign (pointer)
   0393 3E F8              1066 	ld	a,#0xF8
   0395 12                 1067 	ld	(de),a
                           1068 ; genPlus
                           1069 ; genPlusIncr
   0396 11 99 00           1070 	ld	de,#_playerData + 0 + 153
                           1071 ; genAssign (pointer)
   0399 3E 18              1072 	ld	a,#0x18
   039B 12                 1073 	ld	(de),a
                           1074 ; genPlus
                           1075 ; genPlusIncr
   039C 11 9A 00           1076 	ld	de,#_playerData + 0 + 154
                           1077 ; genAssign (pointer)
   039F 3E F0              1078 	ld	a,#0xF0
   03A1 12                 1079 	ld	(de),a
                           1080 ; genPlus
                           1081 ; genPlusIncr
   03A2 11 9B 00           1082 	ld	de,#_playerData + 0 + 155
                           1083 ; genAssign (pointer)
   03A5 3E F0              1084 	ld	a,#0xF0
   03A7 12                 1085 	ld	(de),a
                           1086 ; genPlus
                           1087 ; genPlusIncr
   03A8 11 9C 00           1088 	ld	de,#_playerData + 0 + 156
                           1089 ; genAssign (pointer)
   03AB 3E 90              1090 	ld	a,#0x90
   03AD 12                 1091 	ld	(de),a
                           1092 ; genPlus
                           1093 ; genPlusIncr
   03AE 11 9D 00           1094 	ld	de,#_playerData + 0 + 157
                           1095 ; genAssign (pointer)
   03B1 3E F0              1096 	ld	a,#0xF0
   03B3 12                 1097 	ld	(de),a
                           1098 ; genPlus
                           1099 ; genPlusIncr
   03B4 11 9E 00           1100 	ld	de,#_playerData + 0 + 158
                           1101 ; genAssign (pointer)
   03B7 3E 60              1102 	ld	a,#0x60
   03B9 12                 1103 	ld	(de),a
                           1104 ; genPlus
                           1105 ; genPlusIncr
   03BA 11 9F 00           1106 	ld	de,#_playerData + 0 + 159
                           1107 ; genAssign (pointer)
   03BD 3E 60              1108 	ld	a,#0x60
   03BF 12                 1109 	ld	(de),a
                           1110 ; genPlus
                           1111 ; genPlusIncr
   03C0 11 A0 00           1112 	ld	de,#_playerData + 0 + 160
                           1113 ; genAssign (pointer)
   03C3 3E 07              1114 	ld	a,#0x07
   03C5 12                 1115 	ld	(de),a
                           1116 ; genPlus
                           1117 ; genPlusIncr
   03C6 11 A1 00           1118 	ld	de,#_playerData + 0 + 161
                           1119 ; genAssign (pointer)
   03C9 3E 07              1120 	ld	a,#0x07
   03CB 12                 1121 	ld	(de),a
                           1122 ; genPlus
                           1123 ; genPlusIncr
   03CC 11 A2 00           1124 	ld	de,#_playerData + 0 + 162
                           1125 ; genAssign (pointer)
   03CF 3E 08              1126 	ld	a,#0x08
   03D1 12                 1127 	ld	(de),a
                           1128 ; genPlus
                           1129 ; genPlusIncr
   03D2 11 A3 00           1130 	ld	de,#_playerData + 0 + 163
                           1131 ; genAssign (pointer)
   03D5 3E 0F              1132 	ld	a,#0x0F
   03D7 12                 1133 	ld	(de),a
                           1134 ; genPlus
                           1135 ; genPlusIncr
   03D8 11 A4 00           1136 	ld	de,#_playerData + 0 + 164
                           1137 ; genAssign (pointer)
   03DB 3E 1E              1138 	ld	a,#0x1E
   03DD 12                 1139 	ld	(de),a
                           1140 ; genPlus
                           1141 ; genPlusIncr
   03DE 11 A5 00           1142 	ld	de,#_playerData + 0 + 165
                           1143 ; genAssign (pointer)
   03E1 3E 17              1144 	ld	a,#0x17
   03E3 12                 1145 	ld	(de),a
                           1146 ; genPlus
                           1147 ; genPlusIncr
   03E4 11 A6 00           1148 	ld	de,#_playerData + 0 + 166
                           1149 ; genAssign (pointer)
   03E7 3E 1F              1150 	ld	a,#0x1F
   03E9 12                 1151 	ld	(de),a
                           1152 ; genPlus
                           1153 ; genPlusIncr
   03EA 11 A7 00           1154 	ld	de,#_playerData + 0 + 167
                           1155 ; genAssign (pointer)
   03ED 3E 11              1156 	ld	a,#0x11
   03EF 12                 1157 	ld	(de),a
                           1158 ; genPlus
                           1159 ; genPlusIncr
   03F0 11 A8 00           1160 	ld	de,#_playerData + 0 + 168
                           1161 ; genAssign (pointer)
   03F3 3E 1F              1162 	ld	a,#0x1F
   03F5 12                 1163 	ld	(de),a
                           1164 ; genPlus
                           1165 ; genPlusIncr
   03F6 11 A9 00           1166 	ld	de,#_playerData + 0 + 169
                           1167 ; genAssign (pointer)
   03F9 3E 14              1168 	ld	a,#0x14
   03FB 12                 1169 	ld	(de),a
                           1170 ; genPlus
                           1171 ; genPlusIncr
   03FC 11 AA 00           1172 	ld	de,#_playerData + 0 + 170
                           1173 ; genAssign (pointer)
   03FF 3E 1F              1174 	ld	a,#0x1F
   0401 12                 1175 	ld	(de),a
                           1176 ; genPlus
                           1177 ; genPlusIncr
   0402 11 AB 00           1178 	ld	de,#_playerData + 0 + 171
                           1179 ; genAssign (pointer)
   0405 3E 10              1180 	ld	a,#0x10
   0407 12                 1181 	ld	(de),a
                           1182 ; genPlus
                           1183 ; genPlusIncr
   0408 11 AC 00           1184 	ld	de,#_playerData + 0 + 172
                           1185 ; genAssign (pointer)
   040B 3E 17              1186 	ld	a,#0x17
   040D 12                 1187 	ld	(de),a
                           1188 ; genPlus
                           1189 ; genPlusIncr
   040E 11 AD 00           1190 	ld	de,#_playerData + 0 + 173
                           1191 ; genAssign (pointer)
   0411 3E 18              1192 	ld	a,#0x18
   0413 12                 1193 	ld	(de),a
                           1194 ; genPlus
                           1195 ; genPlusIncr
   0414 11 AE 00           1196 	ld	de,#_playerData + 0 + 174
                           1197 ; genAssign (pointer)
   0417 3E 0F              1198 	ld	a,#0x0F
   0419 12                 1199 	ld	(de),a
                           1200 ; genPlus
                           1201 ; genPlusIncr
   041A 11 AF 00           1202 	ld	de,#_playerData + 0 + 175
                           1203 ; genAssign (pointer)
   041D 3E 08              1204 	ld	a,#0x08
   041F 12                 1205 	ld	(de),a
                           1206 ; genPlus
                           1207 ; genPlusIncr
   0420 11 B0 00           1208 	ld	de,#_playerData + 0 + 176
                           1209 ; genAssign (pointer)
   0423 3E 07              1210 	ld	a,#0x07
   0425 12                 1211 	ld	(de),a
                           1212 ; genPlus
                           1213 ; genPlusIncr
   0426 11 B1 00           1214 	ld	de,#_playerData + 0 + 177
                           1215 ; genAssign (pointer)
   0429 3E 07              1216 	ld	a,#0x07
   042B 12                 1217 	ld	(de),a
                           1218 ; genPlus
                           1219 ; genPlusIncr
   042C 11 B2 00           1220 	ld	de,#_playerData + 0 + 178
                           1221 ; genAssign (pointer)
   042F 3E 08              1222 	ld	a,#0x08
   0431 12                 1223 	ld	(de),a
                           1224 ; genPlus
                           1225 ; genPlusIncr
   0432 11 B3 00           1226 	ld	de,#_playerData + 0 + 179
                           1227 ; genAssign (pointer)
   0435 3E 0F              1228 	ld	a,#0x0F
   0437 12                 1229 	ld	(de),a
                           1230 ; genPlus
                           1231 ; genPlusIncr
   0438 11 B4 00           1232 	ld	de,#_playerData + 0 + 180
                           1233 ; genAssign (pointer)
   043B 3E 0F              1234 	ld	a,#0x0F
   043D 12                 1235 	ld	(de),a
                           1236 ; genPlus
                           1237 ; genPlusIncr
   043E 11 B5 00           1238 	ld	de,#_playerData + 0 + 181
                           1239 ; genAssign (pointer)
   0441 3E 09              1240 	ld	a,#0x09
   0443 12                 1241 	ld	(de),a
                           1242 ; genPlus
                           1243 ; genPlusIncr
   0444 11 B6 00           1244 	ld	de,#_playerData + 0 + 182
                           1245 ; genAssign (pointer)
   0447 3E 09              1246 	ld	a,#0x09
   0449 12                 1247 	ld	(de),a
                           1248 ; genPlus
                           1249 ; genPlusIncr
   044A 11 B7 00           1250 	ld	de,#_playerData + 0 + 183
                           1251 ; genAssign (pointer)
   044D 3E 0F              1252 	ld	a,#0x0F
   044F 12                 1253 	ld	(de),a
                           1254 ; genPlus
                           1255 ; genPlusIncr
   0450 11 B8 00           1256 	ld	de,#_playerData + 0 + 184
                           1257 ; genAssign (pointer)
   0453 3E 0F              1258 	ld	a,#0x0F
   0455 12                 1259 	ld	(de),a
                           1260 ; genPlus
                           1261 ; genPlusIncr
   0456 11 B9 00           1262 	ld	de,#_playerData + 0 + 185
                           1263 ; genAssign (pointer)
   0459 3E 08              1264 	ld	a,#0x08
   045B 12                 1265 	ld	(de),a
                           1266 ; genPlus
                           1267 ; genPlusIncr
   045C 11 BA 00           1268 	ld	de,#_playerData + 0 + 186
                           1269 ; genAssign (pointer)
   045F 3E 07              1270 	ld	a,#0x07
   0461 12                 1271 	ld	(de),a
                           1272 ; genPlus
                           1273 ; genPlusIncr
   0462 11 BB 00           1274 	ld	de,#_playerData + 0 + 187
                           1275 ; genAssign (pointer)
   0465 3E 07              1276 	ld	a,#0x07
   0467 12                 1277 	ld	(de),a
                           1278 ; genPlus
                           1279 ; genPlusIncr
   0468 11 BC 00           1280 	ld	de,#_playerData + 0 + 188
                           1281 ; genAssign (pointer)
   046B 3E 09              1282 	ld	a,#0x09
   046D 12                 1283 	ld	(de),a
                           1284 ; genPlus
                           1285 ; genPlusIncr
   046E 11 BD 00           1286 	ld	de,#_playerData + 0 + 189
                           1287 ; genAssign (pointer)
   0471 3E 0F              1288 	ld	a,#0x0F
   0473 12                 1289 	ld	(de),a
                           1290 ; genPlus
                           1291 ; genPlusIncr
   0474 11 BE 00           1292 	ld	de,#_playerData + 0 + 190
                           1293 ; genAssign (pointer)
   0477 3E 07              1294 	ld	a,#0x07
   0479 12                 1295 	ld	(de),a
                           1296 ; genPlus
                           1297 ; genPlusIncr
   047A 11 BF 00           1298 	ld	de,#_playerData + 0 + 191
                           1299 ; genAssign (pointer)
   047D 3E 07              1300 	ld	a,#0x07
   047F 12                 1301 	ld	(de),a
                           1302 ; genPlus
                           1303 ; genPlusIncr
   0480 11 C0 00           1304 	ld	de,#_playerData + 0 + 192
                           1305 ; genAssign (pointer)
   0483 3E E0              1306 	ld	a,#0xE0
   0485 12                 1307 	ld	(de),a
                           1308 ; genPlus
                           1309 ; genPlusIncr
   0486 11 C1 00           1310 	ld	de,#_playerData + 0 + 193
                           1311 ; genAssign (pointer)
   0489 3E E0              1312 	ld	a,#0xE0
   048B 12                 1313 	ld	(de),a
                           1314 ; genPlus
                           1315 ; genPlusIncr
   048C 11 C2 00           1316 	ld	de,#_playerData + 0 + 194
                           1317 ; genAssign (pointer)
   048F 3E 10              1318 	ld	a,#0x10
   0491 12                 1319 	ld	(de),a
                           1320 ; genPlus
                           1321 ; genPlusIncr
   0492 11 C3 00           1322 	ld	de,#_playerData + 0 + 195
                           1323 ; genAssign (pointer)
   0495 3E F0              1324 	ld	a,#0xF0
   0497 12                 1325 	ld	(de),a
                           1326 ; genPlus
                           1327 ; genPlusIncr
   0498 11 C4 00           1328 	ld	de,#_playerData + 0 + 196
                           1329 ; genAssign (pointer)
   049B 3E 08              1330 	ld	a,#0x08
   049D 12                 1331 	ld	(de),a
                           1332 ; genPlus
                           1333 ; genPlusIncr
   049E 11 C5 00           1334 	ld	de,#_playerData + 0 + 197
                           1335 ; genAssign (pointer)
   04A1 3E F8              1336 	ld	a,#0xF8
   04A3 12                 1337 	ld	(de),a
                           1338 ; genPlus
                           1339 ; genPlusIncr
   04A4 11 C6 00           1340 	ld	de,#_playerData + 0 + 198
                           1341 ; genAssign (pointer)
   04A7 3E 88              1342 	ld	a,#0x88
   04A9 12                 1343 	ld	(de),a
                           1344 ; genPlus
                           1345 ; genPlusIncr
   04AA 11 C7 00           1346 	ld	de,#_playerData + 0 + 199
                           1347 ; genAssign (pointer)
   04AD 3E F8              1348 	ld	a,#0xF8
   04AF 12                 1349 	ld	(de),a
                           1350 ; genPlus
                           1351 ; genPlusIncr
   04B0 11 C8 00           1352 	ld	de,#_playerData + 0 + 200
                           1353 ; genAssign (pointer)
   04B3 3E E8              1354 	ld	a,#0xE8
   04B5 12                 1355 	ld	(de),a
                           1356 ; genPlus
                           1357 ; genPlusIncr
   04B6 11 C9 00           1358 	ld	de,#_playerData + 0 + 201
                           1359 ; genAssign (pointer)
   04B9 3E 78              1360 	ld	a,#0x78
   04BB 12                 1361 	ld	(de),a
                           1362 ; genPlus
                           1363 ; genPlusIncr
   04BC 11 CA 00           1364 	ld	de,#_playerData + 0 + 202
                           1365 ; genAssign (pointer)
   04BF 3E F8              1366 	ld	a,#0xF8
   04C1 12                 1367 	ld	(de),a
                           1368 ; genPlus
                           1369 ; genPlusIncr
   04C2 11 CB 00           1370 	ld	de,#_playerData + 0 + 203
                           1371 ; genAssign (pointer)
   04C5 3E 58              1372 	ld	a,#0x58
   04C7 12                 1373 	ld	(de),a
                           1374 ; genPlus
                           1375 ; genPlusIncr
   04C8 11 CC 00           1376 	ld	de,#_playerData + 0 + 204
                           1377 ; genAssign (pointer)
   04CB 3E F0              1378 	ld	a,#0xF0
   04CD 12                 1379 	ld	(de),a
                           1380 ; genPlus
                           1381 ; genPlusIncr
   04CE 11 CD 00           1382 	ld	de,#_playerData + 0 + 205
                           1383 ; genAssign (pointer)
   04D1 3E 10              1384 	ld	a,#0x10
   04D3 12                 1385 	ld	(de),a
                           1386 ; genPlus
                           1387 ; genPlusIncr
   04D4 11 CE 00           1388 	ld	de,#_playerData + 0 + 206
                           1389 ; genAssign (pointer)
   04D7 3E E0              1390 	ld	a,#0xE0
   04D9 12                 1391 	ld	(de),a
                           1392 ; genPlus
                           1393 ; genPlusIncr
   04DA 11 CF 00           1394 	ld	de,#_playerData + 0 + 207
                           1395 ; genAssign (pointer)
   04DD 3E 20              1396 	ld	a,#0x20
   04DF 12                 1397 	ld	(de),a
                           1398 ; genPlus
                           1399 ; genPlusIncr
   04E0 11 D0 00           1400 	ld	de,#_playerData + 0 + 208
                           1401 ; genAssign (pointer)
   04E3 3E C0              1402 	ld	a,#0xC0
   04E5 12                 1403 	ld	(de),a
                           1404 ; genPlus
                           1405 ; genPlusIncr
   04E6 11 D1 00           1406 	ld	de,#_playerData + 0 + 209
                           1407 ; genAssign (pointer)
   04E9 3E C0              1408 	ld	a,#0xC0
   04EB 12                 1409 	ld	(de),a
                           1410 ; genPlus
                           1411 ; genPlusIncr
   04EC 11 D2 00           1412 	ld	de,#_playerData + 0 + 210
                           1413 ; genAssign (pointer)
   04EF 3E E0              1414 	ld	a,#0xE0
   04F1 12                 1415 	ld	(de),a
                           1416 ; genPlus
                           1417 ; genPlusIncr
   04F2 11 D3 00           1418 	ld	de,#_playerData + 0 + 211
                           1419 ; genAssign (pointer)
   04F5 3E E0              1420 	ld	a,#0xE0
   04F7 12                 1421 	ld	(de),a
                           1422 ; genPlus
                           1423 ; genPlusIncr
   04F8 11 D4 00           1424 	ld	de,#_playerData + 0 + 212
                           1425 ; genAssign (pointer)
   04FB 3E E0              1426 	ld	a,#0xE0
   04FD 12                 1427 	ld	(de),a
                           1428 ; genPlus
                           1429 ; genPlusIncr
   04FE 11 D5 00           1430 	ld	de,#_playerData + 0 + 213
                           1431 ; genAssign (pointer)
   0501 3E 20              1432 	ld	a,#0x20
   0503 12                 1433 	ld	(de),a
                           1434 ; genPlus
                           1435 ; genPlusIncr
   0504 11 D6 00           1436 	ld	de,#_playerData + 0 + 214
                           1437 ; genAssign (pointer)
   0507 3E E0              1438 	ld	a,#0xE0
   0509 12                 1439 	ld	(de),a
                           1440 ; genPlus
                           1441 ; genPlusIncr
   050A 11 D7 00           1442 	ld	de,#_playerData + 0 + 215
                           1443 ; genAssign (pointer)
   050D 3E 20              1444 	ld	a,#0x20
   050F 12                 1445 	ld	(de),a
                           1446 ; genPlus
                           1447 ; genPlusIncr
   0510 11 D8 00           1448 	ld	de,#_playerData + 0 + 216
                           1449 ; genAssign (pointer)
   0513 3E E0              1450 	ld	a,#0xE0
   0515 12                 1451 	ld	(de),a
                           1452 ; genPlus
                           1453 ; genPlusIncr
   0516 11 D9 00           1454 	ld	de,#_playerData + 0 + 217
                           1455 ; genAssign (pointer)
   0519 3E E0              1456 	ld	a,#0xE0
   051B 12                 1457 	ld	(de),a
                           1458 ; genPlus
                           1459 ; genPlusIncr
   051C 11 DA 00           1460 	ld	de,#_playerData + 0 + 218
                           1461 ; genAssign (pointer)
   051F 3E C0              1462 	ld	a,#0xC0
   0521 12                 1463 	ld	(de),a
                           1464 ; genPlus
                           1465 ; genPlusIncr
   0522 11 DB 00           1466 	ld	de,#_playerData + 0 + 219
                           1467 ; genAssign (pointer)
   0525 3E C0              1468 	ld	a,#0xC0
   0527 12                 1469 	ld	(de),a
                           1470 ; genPlus
                           1471 ; genPlusIncr
   0528 11 DC 00           1472 	ld	de,#_playerData + 0 + 220
                           1473 ; genAssign (pointer)
   052B 3E 40              1474 	ld	a,#0x40
   052D 12                 1475 	ld	(de),a
                           1476 ; genPlus
                           1477 ; genPlusIncr
   052E 11 DD 00           1478 	ld	de,#_playerData + 0 + 221
                           1479 ; genAssign (pointer)
   0531 3E C0              1480 	ld	a,#0xC0
   0533 12                 1481 	ld	(de),a
                           1482 ; genPlus
                           1483 ; genPlusIncr
   0534 11 DE 00           1484 	ld	de,#_playerData + 0 + 222
                           1485 ; genAssign (pointer)
   0537 3E 80              1486 	ld	a,#0x80
   0539 12                 1487 	ld	(de),a
                           1488 ; genPlus
                           1489 ; genPlusIncr
   053A 11 DF 00           1490 	ld	de,#_playerData + 0 + 223
                           1491 ; genAssign (pointer)
   053D 3E 80              1492 	ld	a,#0x80
   053F 12                 1493 	ld	(de),a
                           1494 ; genPlus
                           1495 ; genPlusIncr
   0540 11 E0 00           1496 	ld	de,#_playerData + 0 + 224
                           1497 ; genAssign (pointer)
   0543 3E 07              1498 	ld	a,#0x07
   0545 12                 1499 	ld	(de),a
                           1500 ; genPlus
                           1501 ; genPlusIncr
   0546 11 E1 00           1502 	ld	de,#_playerData + 0 + 225
                           1503 ; genAssign (pointer)
   0549 3E 07              1504 	ld	a,#0x07
   054B 12                 1505 	ld	(de),a
                           1506 ; genPlus
                           1507 ; genPlusIncr
   054C 11 E2 00           1508 	ld	de,#_playerData + 0 + 226
                           1509 ; genAssign (pointer)
   054F 3E 09              1510 	ld	a,#0x09
   0551 12                 1511 	ld	(de),a
                           1512 ; genPlus
                           1513 ; genPlusIncr
   0552 11 E3 00           1514 	ld	de,#_playerData + 0 + 227
                           1515 ; genAssign (pointer)
   0555 3E 0F              1516 	ld	a,#0x0F
   0557 12                 1517 	ld	(de),a
                           1518 ; genPlus
                           1519 ; genPlusIncr
   0558 11 E4 00           1520 	ld	de,#_playerData + 0 + 228
                           1521 ; genAssign (pointer)
   055B 3E 0F              1522 	ld	a,#0x0F
   055D 12                 1523 	ld	(de),a
                           1524 ; genPlus
                           1525 ; genPlusIncr
   055E 11 E5 00           1526 	ld	de,#_playerData + 0 + 229
                           1527 ; genAssign (pointer)
   0561 3E 0A              1528 	ld	a,#0x0A
   0563 12                 1529 	ld	(de),a
                           1530 ; genPlus
                           1531 ; genPlusIncr
   0564 11 E6 00           1532 	ld	de,#_playerData + 0 + 230
                           1533 ; genAssign (pointer)
   0567 3E 0B              1534 	ld	a,#0x0B
   0569 12                 1535 	ld	(de),a
                           1536 ; genPlus
                           1537 ; genPlusIncr
   056A 11 E7 00           1538 	ld	de,#_playerData + 0 + 231
                           1539 ; genAssign (pointer)
   056D 3E 0E              1540 	ld	a,#0x0E
   056F 12                 1541 	ld	(de),a
                           1542 ; genPlus
                           1543 ; genPlusIncr
   0570 11 E8 00           1544 	ld	de,#_playerData + 0 + 232
                           1545 ; genAssign (pointer)
   0573 3E 1F              1546 	ld	a,#0x1F
   0575 12                 1547 	ld	(de),a
                           1548 ; genPlus
                           1549 ; genPlusIncr
   0576 11 E9 00           1550 	ld	de,#_playerData + 0 + 233
                           1551 ; genAssign (pointer)
   0579 3E 19              1552 	ld	a,#0x19
   057B 12                 1553 	ld	(de),a
                           1554 ; genPlus
                           1555 ; genPlusIncr
   057C 11 EA 00           1556 	ld	de,#_playerData + 0 + 234
                           1557 ; genAssign (pointer)
   057F 3E 2F              1558 	ld	a,#0x2F
   0581 12                 1559 	ld	(de),a
                           1560 ; genPlus
                           1561 ; genPlusIncr
   0582 11 EB 00           1562 	ld	de,#_playerData + 0 + 235
                           1563 ; genAssign (pointer)
   0585 3E 3F              1564 	ld	a,#0x3F
   0587 12                 1565 	ld	(de),a
                           1566 ; genPlus
                           1567 ; genPlusIncr
   0588 11 EC 00           1568 	ld	de,#_playerData + 0 + 236
                           1569 ; genAssign (pointer)
   058B 3E 24              1570 	ld	a,#0x24
   058D 12                 1571 	ld	(de),a
                           1572 ; genPlus
                           1573 ; genPlusIncr
   058E 11 ED 00           1574 	ld	de,#_playerData + 0 + 237
                           1575 ; genAssign (pointer)
   0591 3E 3C              1576 	ld	a,#0x3C
   0593 12                 1577 	ld	(de),a
                           1578 ; genPlus
                           1579 ; genPlusIncr
   0594 11 EE 00           1580 	ld	de,#_playerData + 0 + 238
                           1581 ; genAssign (pointer)
   0597 3E 18              1582 	ld	a,#0x18
   0599 12                 1583 	ld	(de),a
                           1584 ; genPlus
                           1585 ; genPlusIncr
   059A 11 EF 00           1586 	ld	de,#_playerData + 0 + 239
                           1587 ; genAssign (pointer)
   059D 3E 18              1588 	ld	a,#0x18
   059F 12                 1589 	ld	(de),a
                           1590 ; genPlus
                           1591 ; genPlusIncr
   05A0 11 F0 00           1592 	ld	de,#_playerData + 0 + 240
                           1593 ; genAssign (pointer)
   05A3 3E C0              1594 	ld	a,#0xC0
   05A5 12                 1595 	ld	(de),a
                           1596 ; genPlus
                           1597 ; genPlusIncr
   05A6 11 F1 00           1598 	ld	de,#_playerData + 0 + 241
                           1599 ; genAssign (pointer)
   05A9 3E C0              1600 	ld	a,#0xC0
   05AB 12                 1601 	ld	(de),a
                           1602 ; genPlus
                           1603 ; genPlusIncr
   05AC 11 F2 00           1604 	ld	de,#_playerData + 0 + 242
                           1605 ; genAssign (pointer)
   05AF 3E A0              1606 	ld	a,#0xA0
   05B1 12                 1607 	ld	(de),a
                           1608 ; genPlus
                           1609 ; genPlusIncr
   05B2 11 F3 00           1610 	ld	de,#_playerData + 0 + 243
                           1611 ; genAssign (pointer)
   05B5 3E E0              1612 	ld	a,#0xE0
   05B7 12                 1613 	ld	(de),a
                           1614 ; genPlus
                           1615 ; genPlusIncr
   05B8 11 F4 00           1616 	ld	de,#_playerData + 0 + 244
                           1617 ; genAssign (pointer)
   05BB 3E E0              1618 	ld	a,#0xE0
   05BD 12                 1619 	ld	(de),a
                           1620 ; genPlus
                           1621 ; genPlusIncr
   05BE 11 F5 00           1622 	ld	de,#_playerData + 0 + 245
                           1623 ; genAssign (pointer)
   05C1 3E 60              1624 	ld	a,#0x60
   05C3 12                 1625 	ld	(de),a
                           1626 ; genPlus
                           1627 ; genPlusIncr
   05C4 11 F6 00           1628 	ld	de,#_playerData + 0 + 246
                           1629 ; genAssign (pointer)
   05C7 3E E0              1630 	ld	a,#0xE0
   05C9 12                 1631 	ld	(de),a
                           1632 ; genPlus
                           1633 ; genPlusIncr
   05CA 11 F7 00           1634 	ld	de,#_playerData + 0 + 247
                           1635 ; genAssign (pointer)
   05CD 3E 60              1636 	ld	a,#0x60
   05CF 12                 1637 	ld	(de),a
                           1638 ; genPlus
                           1639 ; genPlusIncr
   05D0 11 F8 00           1640 	ld	de,#_playerData + 0 + 248
                           1641 ; genAssign (pointer)
   05D3 3E E0              1642 	ld	a,#0xE0
   05D5 12                 1643 	ld	(de),a
                           1644 ; genPlus
                           1645 ; genPlusIncr
   05D6 11 F9 00           1646 	ld	de,#_playerData + 0 + 249
                           1647 ; genAssign (pointer)
   05D9 3E A0              1648 	ld	a,#0xA0
   05DB 12                 1649 	ld	(de),a
                           1650 ; genPlus
                           1651 ; genPlusIncr
   05DC 11 FA 00           1652 	ld	de,#_playerData + 0 + 250
                           1653 ; genAssign (pointer)
   05DF 3E D0              1654 	ld	a,#0xD0
   05E1 12                 1655 	ld	(de),a
                           1656 ; genPlus
                           1657 ; genPlusIncr
   05E2 11 FB 00           1658 	ld	de,#_playerData + 0 + 251
                           1659 ; genAssign (pointer)
   05E5 3E F0              1660 	ld	a,#0xF0
   05E7 12                 1661 	ld	(de),a
                           1662 ; genPlus
                           1663 ; genPlusIncr
   05E8 11 FC 00           1664 	ld	de,#_playerData + 0 + 252
                           1665 ; genAssign (pointer)
   05EB 3E 90              1666 	ld	a,#0x90
   05ED 12                 1667 	ld	(de),a
                           1668 ; genPlus
                           1669 ; genPlusIncr
   05EE 11 FD 00           1670 	ld	de,#_playerData + 0 + 253
                           1671 ; genAssign (pointer)
   05F1 3E F0              1672 	ld	a,#0xF0
   05F3 12                 1673 	ld	(de),a
                           1674 ; genPlus
                           1675 ; genPlusIncr
   05F4 11 FE 00           1676 	ld	de,#_playerData + 0 + 254
                           1677 ; genAssign (pointer)
   05F7 3E E0              1678 	ld	a,#0xE0
   05F9 12                 1679 	ld	(de),a
                           1680 ; genPlus
                           1681 ; genPlusIncr
   05FA 11 FF 00           1682 	ld	de,#_playerData + 0 + 255
                           1683 ; genAssign (pointer)
   05FD 3E E0              1684 	ld	a,#0xE0
   05FF 12                 1685 	ld	(de),a
                           1686 ; genPlus
                           1687 ; genPlusIncr
   0600 11 00 01           1688 	ld	de,#_playerData + 0 + 256
                           1689 ; genAssign (pointer)
   0603 3E 07              1690 	ld	a,#0x07
   0605 12                 1691 	ld	(de),a
                           1692 ; genPlus
                           1693 ; genPlusIncr
   0606 11 01 01           1694 	ld	de,#_playerData + 0 + 257
                           1695 ; genAssign (pointer)
   0609 3E 07              1696 	ld	a,#0x07
   060B 12                 1697 	ld	(de),a
                           1698 ; genPlus
                           1699 ; genPlusIncr
   060C 11 02 01           1700 	ld	de,#_playerData + 0 + 258
                           1701 ; genAssign (pointer)
   060F 3E 08              1702 	ld	a,#0x08
   0611 12                 1703 	ld	(de),a
                           1704 ; genPlus
                           1705 ; genPlusIncr
   0612 11 03 01           1706 	ld	de,#_playerData + 0 + 259
                           1707 ; genAssign (pointer)
   0615 3E 0F              1708 	ld	a,#0x0F
   0617 12                 1709 	ld	(de),a
                           1710 ; genPlus
                           1711 ; genPlusIncr
   0618 11 04 01           1712 	ld	de,#_playerData + 0 + 260
                           1713 ; genAssign (pointer)
   061B 3E 0F              1714 	ld	a,#0x0F
   061D 12                 1715 	ld	(de),a
                           1716 ; genPlus
                           1717 ; genPlusIncr
   061E 11 05 01           1718 	ld	de,#_playerData + 0 + 261
                           1719 ; genAssign (pointer)
   0621 3E 08              1720 	ld	a,#0x08
   0623 12                 1721 	ld	(de),a
                           1722 ; genPlus
                           1723 ; genPlusIncr
   0624 11 06 01           1724 	ld	de,#_playerData + 0 + 262
                           1725 ; genAssign (pointer)
   0627 3E 08              1726 	ld	a,#0x08
   0629 12                 1727 	ld	(de),a
                           1728 ; genPlus
                           1729 ; genPlusIncr
   062A 11 07 01           1730 	ld	de,#_playerData + 0 + 263
                           1731 ; genAssign (pointer)
   062D 3E 0F              1732 	ld	a,#0x0F
   062F 12                 1733 	ld	(de),a
                           1734 ; genPlus
                           1735 ; genPlusIncr
   0630 11 08 01           1736 	ld	de,#_playerData + 0 + 264
                           1737 ; genAssign (pointer)
   0633 3E 1F              1738 	ld	a,#0x1F
   0635 12                 1739 	ld	(de),a
                           1740 ; genPlus
                           1741 ; genPlusIncr
   0636 11 09 01           1742 	ld	de,#_playerData + 0 + 265
                           1743 ; genAssign (pointer)
   0639 3E 18              1744 	ld	a,#0x18
   063B 12                 1745 	ld	(de),a
                           1746 ; genPlus
                           1747 ; genPlusIncr
   063C 11 0A 01           1748 	ld	de,#_playerData + 0 + 266
                           1749 ; genAssign (pointer)
   063F 3E 2F              1750 	ld	a,#0x2F
   0641 12                 1751 	ld	(de),a
                           1752 ; genPlus
                           1753 ; genPlusIncr
   0642 11 0B 01           1754 	ld	de,#_playerData + 0 + 267
                           1755 ; genAssign (pointer)
   0645 3E 3F              1756 	ld	a,#0x3F
   0647 12                 1757 	ld	(de),a
                           1758 ; genPlus
                           1759 ; genPlusIncr
   0648 11 0C 01           1760 	ld	de,#_playerData + 0 + 268
                           1761 ; genAssign (pointer)
   064B 3E 24              1762 	ld	a,#0x24
   064D 12                 1763 	ld	(de),a
                           1764 ; genPlus
                           1765 ; genPlusIncr
   064E 11 0D 01           1766 	ld	de,#_playerData + 0 + 269
                           1767 ; genAssign (pointer)
   0651 3E 3C              1768 	ld	a,#0x3C
   0653 12                 1769 	ld	(de),a
                           1770 ; genPlus
                           1771 ; genPlusIncr
   0654 11 0E 01           1772 	ld	de,#_playerData + 0 + 270
                           1773 ; genAssign (pointer)
   0657 3E 18              1774 	ld	a,#0x18
   0659 12                 1775 	ld	(de),a
                           1776 ; genPlus
                           1777 ; genPlusIncr
   065A 11 0F 01           1778 	ld	de,#_playerData + 0 + 271
                           1779 ; genAssign (pointer)
   065D 3E 18              1780 	ld	a,#0x18
   065F 12                 1781 	ld	(de),a
                           1782 ; genPlus
                           1783 ; genPlusIncr
   0660 11 10 01           1784 	ld	de,#_playerData + 0 + 272
                           1785 ; genAssign (pointer)
   0663 3E C0              1786 	ld	a,#0xC0
   0665 12                 1787 	ld	(de),a
                           1788 ; genPlus
                           1789 ; genPlusIncr
   0666 11 11 01           1790 	ld	de,#_playerData + 0 + 273
                           1791 ; genAssign (pointer)
   0669 3E C0              1792 	ld	a,#0xC0
   066B 12                 1793 	ld	(de),a
                           1794 ; genPlus
                           1795 ; genPlusIncr
   066C 11 12 01           1796 	ld	de,#_playerData + 0 + 274
                           1797 ; genAssign (pointer)
   066F 3E 60              1798 	ld	a,#0x60
   0671 12                 1799 	ld	(de),a
                           1800 ; genPlus
                           1801 ; genPlusIncr
   0672 11 13 01           1802 	ld	de,#_playerData + 0 + 275
                           1803 ; genAssign (pointer)
   0675 3E E0              1804 	ld	a,#0xE0
   0677 12                 1805 	ld	(de),a
                           1806 ; genPlus
                           1807 ; genPlusIncr
   0678 11 14 01           1808 	ld	de,#_playerData + 0 + 276
                           1809 ; genAssign (pointer)
   067B 3E F0              1810 	ld	a,#0xF0
   067D 12                 1811 	ld	(de),a
                           1812 ; genPlus
                           1813 ; genPlusIncr
   067E 11 15 01           1814 	ld	de,#_playerData + 0 + 277
                           1815 ; genAssign (pointer)
   0681 3E 90              1816 	ld	a,#0x90
   0683 12                 1817 	ld	(de),a
                           1818 ; genPlus
                           1819 ; genPlusIncr
   0684 11 16 01           1820 	ld	de,#_playerData + 0 + 278
                           1821 ; genAssign (pointer)
   0687 3E F0              1822 	ld	a,#0xF0
   0689 12                 1823 	ld	(de),a
                           1824 ; genPlus
                           1825 ; genPlusIncr
   068A 11 17 01           1826 	ld	de,#_playerData + 0 + 279
                           1827 ; genAssign (pointer)
   068D 3E 90              1828 	ld	a,#0x90
   068F 12                 1829 	ld	(de),a
                           1830 ; genPlus
                           1831 ; genPlusIncr
   0690 11 18 01           1832 	ld	de,#_playerData + 0 + 280
                           1833 ; genAssign (pointer)
   0693 3E E0              1834 	ld	a,#0xE0
   0695 12                 1835 	ld	(de),a
                           1836 ; genPlus
                           1837 ; genPlusIncr
   0696 11 19 01           1838 	ld	de,#_playerData + 0 + 281
                           1839 ; genAssign (pointer)
   0699 3E 60              1840 	ld	a,#0x60
   069B 12                 1841 	ld	(de),a
                           1842 ; genPlus
                           1843 ; genPlusIncr
   069C 11 1A 01           1844 	ld	de,#_playerData + 0 + 282
                           1845 ; genAssign (pointer)
   069F 3E D0              1846 	ld	a,#0xD0
   06A1 12                 1847 	ld	(de),a
                           1848 ; genPlus
                           1849 ; genPlusIncr
   06A2 11 1B 01           1850 	ld	de,#_playerData + 0 + 283
                           1851 ; genAssign (pointer)
   06A5 3E F0              1852 	ld	a,#0xF0
   06A7 12                 1853 	ld	(de),a
                           1854 ; genPlus
                           1855 ; genPlusIncr
   06A8 11 1C 01           1856 	ld	de,#_playerData + 0 + 284
                           1857 ; genAssign (pointer)
   06AB 3E 90              1858 	ld	a,#0x90
   06AD 12                 1859 	ld	(de),a
                           1860 ; genPlus
                           1861 ; genPlusIncr
   06AE 11 1D 01           1862 	ld	de,#_playerData + 0 + 285
                           1863 ; genAssign (pointer)
   06B1 3E F0              1864 	ld	a,#0xF0
   06B3 12                 1865 	ld	(de),a
                           1866 ; genPlus
                           1867 ; genPlusIncr
   06B4 11 1E 01           1868 	ld	de,#_playerData + 0 + 286
                           1869 ; genAssign (pointer)
   06B7 3E E0              1870 	ld	a,#0xE0
   06B9 12                 1871 	ld	(de),a
                           1872 ; genPlus
                           1873 ; genPlusIncr
   06BA 11 1F 01           1874 	ld	de,#_playerData + 0 + 287
                           1875 ; genAssign (pointer)
   06BD 3E E0              1876 	ld	a,#0xE0
   06BF 12                 1877 	ld	(de),a
                           1878 ; genPlus
                           1879 ; genPlusIncr
   06C0 11 20 01           1880 	ld	de,#_playerData + 0 + 288
                           1881 ; genAssign (pointer)
   06C3 3E 07              1882 	ld	a,#0x07
   06C5 12                 1883 	ld	(de),a
                           1884 ; genPlus
                           1885 ; genPlusIncr
   06C6 11 21 01           1886 	ld	de,#_playerData + 0 + 289
                           1887 ; genAssign (pointer)
   06C9 3E 07              1888 	ld	a,#0x07
   06CB 12                 1889 	ld	(de),a
                           1890 ; genPlus
                           1891 ; genPlusIncr
   06CC 11 22 01           1892 	ld	de,#_playerData + 0 + 290
                           1893 ; genAssign (pointer)
   06CF 3E 0F              1894 	ld	a,#0x0F
   06D1 12                 1895 	ld	(de),a
                           1896 ; genPlus
                           1897 ; genPlusIncr
   06D2 11 23 01           1898 	ld	de,#_playerData + 0 + 291
                           1899 ; genAssign (pointer)
   06D5 3E 0F              1900 	ld	a,#0x0F
   06D7 12                 1901 	ld	(de),a
                           1902 ; genPlus
                           1903 ; genPlusIncr
   06D8 11 24 01           1904 	ld	de,#_playerData + 0 + 292
                           1905 ; genAssign (pointer)
   06DB 3E 1F              1906 	ld	a,#0x1F
   06DD 12                 1907 	ld	(de),a
                           1908 ; genPlus
                           1909 ; genPlusIncr
   06DE 11 25 01           1910 	ld	de,#_playerData + 0 + 293
                           1911 ; genAssign (pointer)
   06E1 3E 1F              1912 	ld	a,#0x1F
   06E3 12                 1913 	ld	(de),a
                           1914 ; genPlus
                           1915 ; genPlusIncr
   06E4 11 26 01           1916 	ld	de,#_playerData + 0 + 294
                           1917 ; genAssign (pointer)
   06E7 3E 1F              1918 	ld	a,#0x1F
   06E9 12                 1919 	ld	(de),a
                           1920 ; genPlus
                           1921 ; genPlusIncr
   06EA 11 27 01           1922 	ld	de,#_playerData + 0 + 295
                           1923 ; genAssign (pointer)
   06ED 3E 1F              1924 	ld	a,#0x1F
   06EF 12                 1925 	ld	(de),a
                           1926 ; genPlus
                           1927 ; genPlusIncr
   06F0 11 28 01           1928 	ld	de,#_playerData + 0 + 296
                           1929 ; genAssign (pointer)
   06F3 3E 3F              1930 	ld	a,#0x3F
   06F5 12                 1931 	ld	(de),a
                           1932 ; genPlus
                           1933 ; genPlusIncr
   06F6 11 29 01           1934 	ld	de,#_playerData + 0 + 297
                           1935 ; genAssign (pointer)
   06F9 3E 29              1936 	ld	a,#0x29
   06FB 12                 1937 	ld	(de),a
                           1938 ; genPlus
                           1939 ; genPlusIncr
   06FC 11 2A 01           1940 	ld	de,#_playerData + 0 + 298
                           1941 ; genAssign (pointer)
   06FF 3E 3F              1942 	ld	a,#0x3F
   0701 12                 1943 	ld	(de),a
                           1944 ; genPlus
                           1945 ; genPlusIncr
   0702 11 2B 01           1946 	ld	de,#_playerData + 0 + 299
                           1947 ; genAssign (pointer)
   0705 3E 22              1948 	ld	a,#0x22
   0707 12                 1949 	ld	(de),a
                           1950 ; genPlus
                           1951 ; genPlusIncr
   0708 11 2C 01           1952 	ld	de,#_playerData + 0 + 300
                           1953 ; genAssign (pointer)
   070B 3E 1F              1954 	ld	a,#0x1F
   070D 12                 1955 	ld	(de),a
                           1956 ; genPlus
                           1957 ; genPlusIncr
   070E 11 2D 01           1958 	ld	de,#_playerData + 0 + 301
                           1959 ; genAssign (pointer)
   0711 3E 11              1960 	ld	a,#0x11
   0713 12                 1961 	ld	(de),a
                           1962 ; genPlus
                           1963 ; genPlusIncr
   0714 11 2E 01           1964 	ld	de,#_playerData + 0 + 302
                           1965 ; genAssign (pointer)
   0717 3E 0F              1966 	ld	a,#0x0F
   0719 12                 1967 	ld	(de),a
                           1968 ; genPlus
                           1969 ; genPlusIncr
   071A 11 2F 01           1970 	ld	de,#_playerData + 0 + 303
                           1971 ; genAssign (pointer)
   071D 3E 08              1972 	ld	a,#0x08
   071F 12                 1973 	ld	(de),a
                           1974 ; genPlus
                           1975 ; genPlusIncr
   0720 11 30 01           1976 	ld	de,#_playerData + 0 + 304
                           1977 ; genAssign (pointer)
   0723 3E 07              1978 	ld	a,#0x07
   0725 12                 1979 	ld	(de),a
                           1980 ; genPlus
                           1981 ; genPlusIncr
   0726 11 31 01           1982 	ld	de,#_playerData + 0 + 305
                           1983 ; genAssign (pointer)
   0729 3E 07              1984 	ld	a,#0x07
   072B 12                 1985 	ld	(de),a
                           1986 ; genPlus
                           1987 ; genPlusIncr
   072C 11 32 01           1988 	ld	de,#_playerData + 0 + 306
                           1989 ; genAssign (pointer)
   072F 3E 18              1990 	ld	a,#0x18
   0731 12                 1991 	ld	(de),a
                           1992 ; genPlus
                           1993 ; genPlusIncr
   0732 11 33 01           1994 	ld	de,#_playerData + 0 + 307
                           1995 ; genAssign (pointer)
   0735 3E 1F              1996 	ld	a,#0x1F
   0737 12                 1997 	ld	(de),a
                           1998 ; genPlus
                           1999 ; genPlusIncr
   0738 11 34 01           2000 	ld	de,#_playerData + 0 + 308
                           2001 ; genAssign (pointer)
   073B 3E 3F              2002 	ld	a,#0x3F
   073D 12                 2003 	ld	(de),a
                           2004 ; genPlus
                           2005 ; genPlusIncr
   073E 11 35 01           2006 	ld	de,#_playerData + 0 + 309
                           2007 ; genAssign (pointer)
   0741 3E 24              2008 	ld	a,#0x24
   0743 12                 2009 	ld	(de),a
                           2010 ; genPlus
                           2011 ; genPlusIncr
   0744 11 36 01           2012 	ld	de,#_playerData + 0 + 310
                           2013 ; genAssign (pointer)
   0747 3E 3C              2014 	ld	a,#0x3C
   0749 12                 2015 	ld	(de),a
                           2016 ; genPlus
                           2017 ; genPlusIncr
   074A 11 37 01           2018 	ld	de,#_playerData + 0 + 311
                           2019 ; genAssign (pointer)
   074D 3E 27              2020 	ld	a,#0x27
   074F 12                 2021 	ld	(de),a
                           2022 ; genPlus
                           2023 ; genPlusIncr
   0750 11 38 01           2024 	ld	de,#_playerData + 0 + 312
                           2025 ; genAssign (pointer)
   0753 3E 1F              2026 	ld	a,#0x1F
   0755 12                 2027 	ld	(de),a
                           2028 ; genPlus
                           2029 ; genPlusIncr
   0756 11 39 01           2030 	ld	de,#_playerData + 0 + 313
                           2031 ; genAssign (pointer)
   0759 3E 18              2032 	ld	a,#0x18
   075B 12                 2033 	ld	(de),a
                           2034 ; genPlus
                           2035 ; genPlusIncr
   075C 11 3A 01           2036 	ld	de,#_playerData + 0 + 314
                           2037 ; genAssign (pointer)
   075F 3E 0F              2038 	ld	a,#0x0F
   0761 12                 2039 	ld	(de),a
                           2040 ; genPlus
                           2041 ; genPlusIncr
   0762 11 3B 01           2042 	ld	de,#_playerData + 0 + 315
                           2043 ; genAssign (pointer)
   0765 3E 0F              2044 	ld	a,#0x0F
   0767 12                 2045 	ld	(de),a
                           2046 ; genPlus
                           2047 ; genPlusIncr
   0768 11 3C 01           2048 	ld	de,#_playerData + 0 + 316
                           2049 ; genAssign (pointer)
   076B 3E 09              2050 	ld	a,#0x09
   076D 12                 2051 	ld	(de),a
                           2052 ; genPlus
                           2053 ; genPlusIncr
   076E 11 3D 01           2054 	ld	de,#_playerData + 0 + 317
                           2055 ; genAssign (pointer)
   0771 3E 0F              2056 	ld	a,#0x0F
   0773 12                 2057 	ld	(de),a
                           2058 ; genPlus
                           2059 ; genPlusIncr
   0774 11 3E 01           2060 	ld	de,#_playerData + 0 + 318
                           2061 ; genAssign (pointer)
   0777 3E 06              2062 	ld	a,#0x06
   0779 12                 2063 	ld	(de),a
                           2064 ; genPlus
                           2065 ; genPlusIncr
   077A 11 3F 01           2066 	ld	de,#_playerData + 0 + 319
                           2067 ; genAssign (pointer)
   077D 3E 06              2068 	ld	a,#0x06
   077F 12                 2069 	ld	(de),a
                           2070 ; genPlus
                           2071 ; genPlusIncr
   0780 11 40 01           2072 	ld	de,#_playerData + 0 + 320
                           2073 ; genAssign (pointer)
   0783 3E E0              2074 	ld	a,#0xE0
   0785 12                 2075 	ld	(de),a
                           2076 ; genPlus
                           2077 ; genPlusIncr
   0786 11 41 01           2078 	ld	de,#_playerData + 0 + 321
                           2079 ; genAssign (pointer)
   0789 3E E0              2080 	ld	a,#0xE0
   078B 12                 2081 	ld	(de),a
                           2082 ; genPlus
                           2083 ; genPlusIncr
   078C 11 42 01           2084 	ld	de,#_playerData + 0 + 322
                           2085 ; genAssign (pointer)
   078F 3E F0              2086 	ld	a,#0xF0
   0791 12                 2087 	ld	(de),a
                           2088 ; genPlus
                           2089 ; genPlusIncr
   0792 11 43 01           2090 	ld	de,#_playerData + 0 + 323
                           2091 ; genAssign (pointer)
   0795 3E F0              2092 	ld	a,#0xF0
   0797 12                 2093 	ld	(de),a
                           2094 ; genPlus
                           2095 ; genPlusIncr
   0798 11 44 01           2096 	ld	de,#_playerData + 0 + 324
                           2097 ; genAssign (pointer)
   079B 3E F8              2098 	ld	a,#0xF8
   079D 12                 2099 	ld	(de),a
                           2100 ; genPlus
                           2101 ; genPlusIncr
   079E 11 45 01           2102 	ld	de,#_playerData + 0 + 325
                           2103 ; genAssign (pointer)
   07A1 3E F8              2104 	ld	a,#0xF8
   07A3 12                 2105 	ld	(de),a
                           2106 ; genPlus
                           2107 ; genPlusIncr
   07A4 11 46 01           2108 	ld	de,#_playerData + 0 + 326
                           2109 ; genAssign (pointer)
   07A7 3E F8              2110 	ld	a,#0xF8
   07A9 12                 2111 	ld	(de),a
                           2112 ; genPlus
                           2113 ; genPlusIncr
   07AA 11 47 01           2114 	ld	de,#_playerData + 0 + 327
                           2115 ; genAssign (pointer)
   07AD 3E D8              2116 	ld	a,#0xD8
   07AF 12                 2117 	ld	(de),a
                           2118 ; genPlus
                           2119 ; genPlusIncr
   07B0 11 48 01           2120 	ld	de,#_playerData + 0 + 328
                           2121 ; genAssign (pointer)
   07B3 3E FC              2122 	ld	a,#0xFC
   07B5 12                 2123 	ld	(de),a
                           2124 ; genPlus
                           2125 ; genPlusIncr
   07B6 11 49 01           2126 	ld	de,#_playerData + 0 + 329
                           2127 ; genAssign (pointer)
   07B9 3E 14              2128 	ld	a,#0x14
   07BB 12                 2129 	ld	(de),a
                           2130 ; genPlus
                           2131 ; genPlusIncr
   07BC 11 4A 01           2132 	ld	de,#_playerData + 0 + 330
                           2133 ; genAssign (pointer)
   07BF 3E FC              2134 	ld	a,#0xFC
   07C1 12                 2135 	ld	(de),a
                           2136 ; genPlus
                           2137 ; genPlusIncr
   07C2 11 4B 01           2138 	ld	de,#_playerData + 0 + 331
                           2139 ; genAssign (pointer)
   07C5 3E 44              2140 	ld	a,#0x44
   07C7 12                 2141 	ld	(de),a
                           2142 ; genPlus
                           2143 ; genPlusIncr
   07C8 11 4C 01           2144 	ld	de,#_playerData + 0 + 332
                           2145 ; genAssign (pointer)
   07CB 3E F8              2146 	ld	a,#0xF8
   07CD 12                 2147 	ld	(de),a
                           2148 ; genPlus
                           2149 ; genPlusIncr
   07CE 11 4D 01           2150 	ld	de,#_playerData + 0 + 333
                           2151 ; genAssign (pointer)
   07D1 3E 88              2152 	ld	a,#0x88
   07D3 12                 2153 	ld	(de),a
                           2154 ; genPlus
                           2155 ; genPlusIncr
   07D4 11 4E 01           2156 	ld	de,#_playerData + 0 + 334
                           2157 ; genAssign (pointer)
   07D7 3E F0              2158 	ld	a,#0xF0
   07D9 12                 2159 	ld	(de),a
                           2160 ; genPlus
                           2161 ; genPlusIncr
   07DA 11 4F 01           2162 	ld	de,#_playerData + 0 + 335
                           2163 ; genAssign (pointer)
   07DD 3E 10              2164 	ld	a,#0x10
   07DF 12                 2165 	ld	(de),a
                           2166 ; genPlus
                           2167 ; genPlusIncr
   07E0 11 50 01           2168 	ld	de,#_playerData + 0 + 336
                           2169 ; genAssign (pointer)
   07E3 3E E0              2170 	ld	a,#0xE0
   07E5 12                 2171 	ld	(de),a
                           2172 ; genPlus
                           2173 ; genPlusIncr
   07E6 11 51 01           2174 	ld	de,#_playerData + 0 + 337
                           2175 ; genAssign (pointer)
   07E9 3E E0              2176 	ld	a,#0xE0
   07EB 12                 2177 	ld	(de),a
                           2178 ; genPlus
                           2179 ; genPlusIncr
   07EC 11 52 01           2180 	ld	de,#_playerData + 0 + 338
                           2181 ; genAssign (pointer)
   07EF 3E 18              2182 	ld	a,#0x18
   07F1 12                 2183 	ld	(de),a
                           2184 ; genPlus
                           2185 ; genPlusIncr
   07F2 11 53 01           2186 	ld	de,#_playerData + 0 + 339
                           2187 ; genAssign (pointer)
   07F5 3E F8              2188 	ld	a,#0xF8
   07F7 12                 2189 	ld	(de),a
                           2190 ; genPlus
                           2191 ; genPlusIncr
   07F8 11 54 01           2192 	ld	de,#_playerData + 0 + 340
                           2193 ; genAssign (pointer)
   07FB 3E FC              2194 	ld	a,#0xFC
   07FD 12                 2195 	ld	(de),a
                           2196 ; genPlus
                           2197 ; genPlusIncr
   07FE 11 55 01           2198 	ld	de,#_playerData + 0 + 341
                           2199 ; genAssign (pointer)
   0801 3E 24              2200 	ld	a,#0x24
   0803 12                 2201 	ld	(de),a
                           2202 ; genPlus
                           2203 ; genPlusIncr
   0804 11 56 01           2204 	ld	de,#_playerData + 0 + 342
                           2205 ; genAssign (pointer)
   0807 3E 3C              2206 	ld	a,#0x3C
   0809 12                 2207 	ld	(de),a
                           2208 ; genPlus
                           2209 ; genPlusIncr
   080A 11 57 01           2210 	ld	de,#_playerData + 0 + 343
                           2211 ; genAssign (pointer)
   080D 3E E4              2212 	ld	a,#0xE4
   080F 12                 2213 	ld	(de),a
                           2214 ; genPlus
                           2215 ; genPlusIncr
   0810 11 58 01           2216 	ld	de,#_playerData + 0 + 344
                           2217 ; genAssign (pointer)
   0813 3E F8              2218 	ld	a,#0xF8
   0815 12                 2219 	ld	(de),a
                           2220 ; genPlus
                           2221 ; genPlusIncr
   0816 11 59 01           2222 	ld	de,#_playerData + 0 + 345
                           2223 ; genAssign (pointer)
   0819 3E 18              2224 	ld	a,#0x18
   081B 12                 2225 	ld	(de),a
                           2226 ; genPlus
                           2227 ; genPlusIncr
   081C 11 5A 01           2228 	ld	de,#_playerData + 0 + 346
                           2229 ; genAssign (pointer)
   081F 3E F0              2230 	ld	a,#0xF0
   0821 12                 2231 	ld	(de),a
                           2232 ; genPlus
                           2233 ; genPlusIncr
   0822 11 5B 01           2234 	ld	de,#_playerData + 0 + 347
                           2235 ; genAssign (pointer)
   0825 3E F0              2236 	ld	a,#0xF0
   0827 12                 2237 	ld	(de),a
                           2238 ; genPlus
                           2239 ; genPlusIncr
   0828 11 5C 01           2240 	ld	de,#_playerData + 0 + 348
                           2241 ; genAssign (pointer)
   082B 3E 90              2242 	ld	a,#0x90
   082D 12                 2243 	ld	(de),a
                           2244 ; genPlus
                           2245 ; genPlusIncr
   082E 11 5D 01           2246 	ld	de,#_playerData + 0 + 349
                           2247 ; genAssign (pointer)
   0831 3E F0              2248 	ld	a,#0xF0
   0833 12                 2249 	ld	(de),a
                           2250 ; genPlus
                           2251 ; genPlusIncr
   0834 11 5E 01           2252 	ld	de,#_playerData + 0 + 350
                           2253 ; genAssign (pointer)
   0837 3E 60              2254 	ld	a,#0x60
   0839 12                 2255 	ld	(de),a
                           2256 ; genPlus
                           2257 ; genPlusIncr
   083A 11 5F 01           2258 	ld	de,#_playerData + 0 + 351
                           2259 ; genAssign (pointer)
   083D 3E 60              2260 	ld	a,#0x60
   083F 12                 2261 	ld	(de),a
                           2262 ;	main.c 327
                           2263 ; genAssign
                           2264 ; AOP_HL for _playerx
   0840 21 60 01           2265 	ld	hl,#_playerx + 0
   0843 36 58              2266 	ld	(hl),#0x58
                           2267 ;	main.c 327
                           2268 ; genAssign
                           2269 ; AOP_HL for _playery
   0845 21 61 01           2270 	ld	hl,#_playery + 0
   0848 36 30              2271 	ld	(hl),#0x30
                           2272 ;	main.c 327
                           2273 ; genAssign
                           2274 ; AOP_HL for _walkderetion
   084A 21 62 01           2275 	ld	hl,#_walkderetion + 0
   084D 36 00              2276 	ld	(hl),#0x00
                           2277 ;	main.c 327
                           2278 ; genAssign
                           2279 ; AOP_HL for _walkdelay
   084F 21 63 01           2280 	ld	hl,#_walkdelay + 0
   0852 36 A0              2281 	ld	(hl),#0xA0
                           2282 ;	main.c 327
                           2283 ; genAssign
                           2284 ; AOP_HL for _walkspeedtype
   0854 21 64 01           2285 	ld	hl,#_walkspeedtype + 0
   0857 36 00              2286 	ld	(hl),#0x00
                           2287 ;	main.c 327
                           2288 ; genAssign
                           2289 ; AOP_HL for _npcx
   0859 21 65 01           2290 	ld	hl,#_npcx + 0
   085C 36 58              2291 	ld	(hl),#0x58
                           2292 ;	main.c 327
                           2293 ; genAssign
                           2294 ; AOP_HL for _npcy
   085E 21 66 01           2295 	ld	hl,#_npcy + 0
   0861 36 60              2296 	ld	(hl),#0x60
                           2297 ;	main.c 327
                           2298 ; genAssign
                           2299 ; AOP_HL for _i
   0863 21 67 01           2300 	ld	hl,#_i + 0
   0866 36 00              2301 	ld	(hl),#0x00
                           2302 ;	main.c 327
                           2303 ; genAssign
                           2304 ; AOP_HL for _walkanimation
   0868 21 68 01           2305 	ld	hl,#_walkanimation + 0
   086B 36 00              2306 	ld	(hl),#0x00
                           2307 ;--------------------------------------------------------
                           2308 ; Home
                           2309 ;--------------------------------------------------------
                           2310 	.area _HOME
                           2311 	.area _CODE
                           2312 ;--------------------------------------------------------
                           2313 ; code
                           2314 ;--------------------------------------------------------
                           2315 	.area _CODE
                           2316 ;	main.c 22
                           2317 ; genLabel
                           2318 ; genFunction
                           2319 ;	---------------------------------
                           2320 ; Function display
                           2321 ; ---------------------------------
   0000                    2322 ___display_start:
   0000                    2323 _display:
   0000 C5                 2324 	push	bc
                           2325 	
                           2326 ;	main.c 23
                           2327 ; genIpush
                           2328 ; AOP_HL for _playery
   0001 21 61 01           2329 	ld	hl,#_playery + 0
   0004 7E                 2330 	ld	a,(hl)
   0005 F5                 2331 	push	af
   0006 33                 2332 	inc	sp
                           2333 ; genIpush
                           2334 ; AOP_HL for _playerx
   0007 21 60 01           2335 	ld	hl,#_playerx + 0
   000A 7E                 2336 	ld	a,(hl)
   000B F5                 2337 	push	af
   000C 33                 2338 	inc	sp
                           2339 ; genIpush
   000D 3E 00              2340 	ld	a,#0x00
   000F F5                 2341 	push	af
   0010 33                 2342 	inc	sp
                           2343 ; genCall
   0011 CD 00 00           2344 	call	_move_sprite
   0014 E8 03              2345 	lda	sp,3(sp)
                           2346 ;	main.c 24
                           2347 ; genPlus
                           2348 ; AOP_HL for _playery
                           2349 ; genPlusIncr
                           2350 ;	genPlusIncr failed
   0016 21 61 01           2351 	ld	hl,#_playery + 0
   0019 7E                 2352 	ld	a,(hl)
   001A C6 08              2353 	add	a,#0x08
   001C 4F                 2354 	ld	c,a
                           2355 ; genIpush
   001D 79                 2356 	ld	a,c
   001E F5                 2357 	push	af
   001F 33                 2358 	inc	sp
                           2359 ; genIpush
                           2360 ; AOP_HL for _playerx
   0020 21 60 01           2361 	ld	hl,#_playerx + 0
   0023 7E                 2362 	ld	a,(hl)
   0024 F5                 2363 	push	af
   0025 33                 2364 	inc	sp
                           2365 ; genIpush
   0026 3E 01              2366 	ld	a,#0x01
   0028 F5                 2367 	push	af
   0029 33                 2368 	inc	sp
                           2369 ; genCall
   002A CD 00 00           2370 	call	_move_sprite
   002D E8 03              2371 	lda	sp,3(sp)
                           2372 ;	main.c 25
                           2373 ; genPlus
                           2374 ; AOP_HL for _playerx
                           2375 ; genPlusIncr
                           2376 ;	genPlusIncr failed
   002F 21 60 01           2377 	ld	hl,#_playerx + 0
   0032 7E                 2378 	ld	a,(hl)
   0033 C6 08              2379 	add	a,#0x08
   0035 47                 2380 	ld	b,a
                           2381 ; genIpush
                           2382 ; AOP_HL for _playery
   0036 21 61 01           2383 	ld	hl,#_playery + 0
   0039 7E                 2384 	ld	a,(hl)
   003A F5                 2385 	push	af
   003B 33                 2386 	inc	sp
                           2387 ; genIpush
   003C 78                 2388 	ld	a,b
   003D F5                 2389 	push	af
   003E 33                 2390 	inc	sp
                           2391 ; genIpush
   003F 3E 02              2392 	ld	a,#0x02
   0041 F5                 2393 	push	af
   0042 33                 2394 	inc	sp
                           2395 ; genCall
   0043 CD 00 00           2396 	call	_move_sprite
   0046 E8 03              2397 	lda	sp,3(sp)
                           2398 ;	main.c 26
                           2399 ; genIpush
   0048 79                 2400 	ld	a,c
   0049 F5                 2401 	push	af
   004A 33                 2402 	inc	sp
                           2403 ; genIpush
   004B 78                 2404 	ld	a,b
   004C F5                 2405 	push	af
   004D 33                 2406 	inc	sp
                           2407 ; genIpush
   004E 3E 03              2408 	ld	a,#0x03
   0050 F5                 2409 	push	af
   0051 33                 2410 	inc	sp
                           2411 ; genCall
   0052 CD 00 00           2412 	call	_move_sprite
   0055 E8 03              2413 	lda	sp,3(sp)
                           2414 ; genLabel
   0057                    2415 00101$:
                           2416 ; genEndFunction
                           2417 	
   0057 C1                 2418 	pop	bc
   0058 C9                 2419 	ret
   0059                    2420 ___display_end:
                           2421 ;	main.c 31
                           2422 ; genLabel
                           2423 ; genFunction
                           2424 ;	---------------------------------
                           2425 ; Function walk
                           2426 ; ---------------------------------
   0059                    2427 ___walk_start:
   0059                    2428 _walk:
   0059 C5                 2429 	push	bc
   005A E8 FE              2430 	lda	sp,-2(sp)
                           2431 ;	main.c 32
                           2432 ; genAssign
                           2433 ; AOP_HL for _i
   005C 21 67 01           2434 	ld	hl,#_i + 0
   005F 36 00              2435 	ld	(hl),#0x00
                           2436 ; genAssign
                           2437 ; AOP_STK for 
                           2438 ; AOP_STK for _walk_sloc0_1_0
   0061 F8 06              2439 	lda	hl,6(sp)
   0063 2A                 2440 	ld	a,(hl+)
   0064 5E                 2441 	ld	e,(hl)
   0065 F8 00              2442 	lda	hl,0(sp)
   0067 22                 2443 	ld	(hl+),a
   0068 73                 2444 	ld	(hl),e
                           2445 ; genLabel
   0069                    2446 00101$:
                           2447 ; genCmpLt
                           2448 ; AOP_HL for _i
                           2449 ; AOP_STK for 
   0069 AF                 2450 	xor	a,a
   006A 21 67 01           2451 	ld	hl,#_i + 0
   006D 7E                 2452 	ld	a,(hl)
   006E F8 09              2453 	lda	hl,9(sp)
   0070 9E                 2454 	sbc	a,(hl) ; 2
   0071 D2 9A 00           2455 	jp	nc,00105$
                           2456 ;	main.c 33
                           2457 ; genPointerGet
                           2458 ; AOP_STK for _walk_sloc0_1_0
   0074 F8 00              2459 	lda	hl,0(sp)
   0076 5E                 2460 	ld	e,(hl)
   0077 23                 2461 	inc	hl
   0078 56                 2462 	ld	d,(hl)
   0079 1A                 2463 	ld	a,(de)
                           2464 ; genPlus
                           2465 ; AOP_STK for 
                           2466 ;	genPlusIncr failed
   007A F8 08              2467 	lda	hl,8(sp)
   007C 86                 2468 	add	a,(hl)
   007D 4F                 2469 	ld	c,a
                           2470 ; genAssign (pointer)
                           2471 ; AOP_STK for _walk_sloc0_1_0
   007E F8 00              2472 	lda	hl,0(sp)
   0080 5E                 2473 	ld	e,(hl)
   0081 23                 2474 	inc	hl
   0082 56                 2475 	ld	d,(hl)
   0083 79                 2476 	ld	a,c
   0084 12                 2477 	ld	(de),a
                           2478 ;	main.c 34
                           2479 ; genCall
   0085 CD 00 00           2480 	call	_display
                           2481 ;	main.c 35
                           2482 ; genCast
                           2483 ; AOP_STK for 
   0088 F8 0A              2484 	lda	hl,10(sp)
   008A 4E                 2485 	ld	c,(hl)
   008B 06 00              2486 	ld	b,#0x00
                           2487 ; genIpush
   008D C5                 2488 	push	bc
                           2489 ; genCall
   008E CD 00 00           2490 	call	_delay
   0091 E8 02              2491 	lda	sp,2(sp)
                           2492 ;	main.c 32
                           2493 ; genPlus
                           2494 ; AOP_HL for _i
                           2495 ; genPlusIncr
   0093 21 67 01           2496 	ld	hl,#_i + 0
   0096 34                 2497 	inc	(hl)
                           2498 ; genGoto
   0097 C3 69 00           2499 	jp	00101$
                           2500 ; genLabel
   009A                    2501 00105$:
                           2502 ; genEndFunction
   009A E8 02              2503 	lda	sp,2(sp)
   009C C1                 2504 	pop	bc
   009D C9                 2505 	ret
   009E                    2506 ___walk_end:
                           2507 ;	main.c 39
                           2508 ; genLabel
                           2509 ; genFunction
                           2510 ;	---------------------------------
                           2511 ; Function maywalk
                           2512 ; ---------------------------------
   009E                    2513 ___maywalk_start:
   009E                    2514 _maywalk:
   009E C5                 2515 	push	bc
                           2516 	
                           2517 ;	main.c 41
                           2518 ; genCmpGt
                           2519 ; AOP_STK for 
   009F AF                 2520 	xor	a,a
   00A0 3E 00              2521 	ld	a,#0x00
   00A2 F8 04              2522 	lda	hl,4(sp)
   00A4 9E                 2523 	sbc	a,(hl) ; 2
   00A5 3E 00              2524 	ld	a,#0x00
   00A7 17                 2525 	rla
   00A8 4F                 2526 	ld	c,a
                           2527 ; genCmpLt
                           2528 ; AOP_STK for 
   00A9 7E                 2529 	ld	a,(hl)
   00AA FE A0              2530 	cp	#0xA0
   00AC 3E 00              2531 	ld	a,#0x00
   00AE 17                 2532 	rla
   00AF 47                 2533 	ld	b,a
                           2534 ; genAnd
   00B0 79                 2535 	ld	a,c
   00B1 A0                 2536 	and	a,b
   00B2 4F                 2537 	ld	c,a
                           2538 ; genCmpGt
                           2539 ; AOP_STK for 
   00B3 AF                 2540 	xor	a,a
   00B4 3E 00              2541 	ld	a,#0x00
   00B6 23                 2542 	inc	hl
   00B7 9E                 2543 	sbc	a,(hl) ; 2
   00B8 3E 00              2544 	ld	a,#0x00
   00BA 17                 2545 	rla
   00BB 47                 2546 	ld	b,a
                           2547 ; genAnd
   00BC 79                 2548 	ld	a,c
   00BD A0                 2549 	and	a,b
   00BE 4F                 2550 	ld	c,a
                           2551 ; genCmpGt
                           2552 ; AOP_STK for 
   00BF AF                 2553 	xor	a,a
   00C0 3E 90              2554 	ld	a,#0x90
   00C2 9E                 2555 	sbc	a,(hl) ; 2
   00C3 3E 00              2556 	ld	a,#0x00
   00C5 17                 2557 	rla
   00C6 47                 2558 	ld	b,a
                           2559 ; genNot
   00C7 AF                 2560 	xor	a,a
   00C8 B0                 2561 	or	a,b
   00C9 D6 01              2562 	sub	a,#0x01
   00CB 3E 00              2563 	ld	a,#0x00
   00CD 17                 2564 	rla
   00CE 47                 2565 	ld	b,a
                           2566 ; genAnd
   00CF 79                 2567 	ld	a,c
   00D0 A0                 2568 	and	a,b
   00D1 4F                 2569 	ld	c,a
                           2570 ; genIfx
                           2571 ; Removed redundent or a,a
   00D2 AF                 2572 	xor	a,a
   00D3 B1                 2573 	or	a,c
   00D4 CA 2F 01           2574 	jp	z,00105$
                           2575 ;	main.c 43
                           2576 ; genCmpLt
                           2577 ; AOP_STK for 
                           2578 ; AOP_HL for _npcx
   00D7 AF                 2579 	xor	a,a
   00D8 2B                 2580 	dec	hl
   00D9 7E                 2581 	ld	a,(hl)
   00DA 21 65 01           2582 	ld	hl,#_npcx + 0
   00DD 9E                 2583 	sbc	a,(hl) ; 2
   00DE 3E 00              2584 	ld	a,#0x00
   00E0 17                 2585 	rla
   00E1 4F                 2586 	ld	c,a
                           2587 ; genNot
   00E2 AF                 2588 	xor	a,a
   00E3 B1                 2589 	or	a,c
   00E4 D6 01              2590 	sub	a,#0x01
   00E6 3E 00              2591 	ld	a,#0x00
   00E8 17                 2592 	rla
   00E9 4F                 2593 	ld	c,a
                           2594 ; genPlus
                           2595 ; AOP_HL for _npcx
                           2596 ; genPlusIncr
                           2597 ;	genPlusIncr failed
   00EA 7E                 2598 	ld	a,(hl)
   00EB C6 10              2599 	add	a,#0x10
   00ED 47                 2600 	ld	b,a
                           2601 ; genCmpLt
                           2602 ; AOP_STK for 
   00EE AF                 2603 	xor	a,a
   00EF F8 04              2604 	lda	hl,4(sp)
   00F1 7E                 2605 	ld	a,(hl)
   00F2 98                 2606 	sbc	a,b ; 2
   00F3 3E 00              2607 	ld	a,#0x00
   00F5 17                 2608 	rla
   00F6 47                 2609 	ld	b,a
                           2610 ; genAnd
   00F7 79                 2611 	ld	a,c
   00F8 A0                 2612 	and	a,b
   00F9 4F                 2613 	ld	c,a
                           2614 ; genCmpLt
                           2615 ; AOP_STK for 
                           2616 ; AOP_HL for _npcy
   00FA AF                 2617 	xor	a,a
   00FB 23                 2618 	inc	hl
   00FC 7E                 2619 	ld	a,(hl)
   00FD 21 66 01           2620 	ld	hl,#_npcy + 0
   0100 9E                 2621 	sbc	a,(hl) ; 2
   0101 3E 00              2622 	ld	a,#0x00
   0103 17                 2623 	rla
   0104 47                 2624 	ld	b,a
                           2625 ; genNot
   0105 AF                 2626 	xor	a,a
   0106 B0                 2627 	or	a,b
   0107 D6 01              2628 	sub	a,#0x01
   0109 3E 00              2629 	ld	a,#0x00
   010B 17                 2630 	rla
   010C 47                 2631 	ld	b,a
                           2632 ; genAnd
   010D 79                 2633 	ld	a,c
   010E A0                 2634 	and	a,b
   010F 4F                 2635 	ld	c,a
                           2636 ; genPlus
                           2637 ; AOP_HL for _npcy
                           2638 ; genPlusIncr
                           2639 ;	genPlusIncr failed
   0110 7E                 2640 	ld	a,(hl)
   0111 C6 10              2641 	add	a,#0x10
   0113 47                 2642 	ld	b,a
                           2643 ; genCmpLt
                           2644 ; AOP_STK for 
   0114 AF                 2645 	xor	a,a
   0115 F8 05              2646 	lda	hl,5(sp)
   0117 7E                 2647 	ld	a,(hl)
   0118 98                 2648 	sbc	a,b ; 2
   0119 3E 00              2649 	ld	a,#0x00
   011B 17                 2650 	rla
   011C 47                 2651 	ld	b,a
                           2652 ; genAnd
   011D 79                 2653 	ld	a,c
   011E A0                 2654 	and	a,b
   011F 4F                 2655 	ld	c,a
                           2656 ; genIfx
                           2657 ; Removed redundent or a,a
   0120 AF                 2658 	xor	a,a
   0121 B1                 2659 	or	a,c
   0122 CA 2A 01           2660 	jp	z,00102$
                           2661 ;	main.c 44
                           2662 ; genRet
   0125 1E 00              2663 	ld	e,#0x00
   0127 C3 31 01           2664 	jp	00107$
                           2665 ; genLabel
   012A                    2666 00102$:
                           2667 ;	main.c 46
                           2668 ; genRet
   012A 1E 01              2669 	ld	e,#0x01
   012C C3 31 01           2670 	jp	00107$
                           2671 ; genLabel
   012F                    2672 00105$:
                           2673 ;	main.c 51
                           2674 ; genRet
   012F 1E 00              2675 	ld	e,#0x00
                           2676 ; genLabel
   0131                    2677 00107$:
                           2678 ; genEndFunction
                           2679 	
   0131 C1                 2680 	pop	bc
   0132 C9                 2681 	ret
   0133                    2682 ___maywalk_end:
                           2683 ;	main.c 59
                           2684 ; genLabel
                           2685 ; genFunction
                           2686 ;	---------------------------------
                           2687 ; Function main
                           2688 ; ---------------------------------
   0133                    2689 ___main_start:
   0133                    2690 _main:
   0133 C5                 2691 	push	bc
                           2692 	
                           2693 ;	main.c 60
                           2694 ; genIpush
   0134 21 00 00           2695 	ld	hl,#_playerData + 0
   0137 E5                 2696 	push	hl
                           2697 ; genIpush
   0138 3E 16              2698 	ld	a,#0x16
   013A F5                 2699 	push	af
   013B 33                 2700 	inc	sp
                           2701 ; genIpush
   013C 3E 00              2702 	ld	a,#0x00
   013E F5                 2703 	push	af
   013F 33                 2704 	inc	sp
                           2705 ; genCall
   0140 CD 00 00           2706 	call	_set_sprite_data
   0143 E8 04              2707 	lda	sp,4(sp)
                           2708 ;	main.c 63
                           2709 ; genIpush
   0145 3E 00              2710 	ld	a,#0x00
   0147 F5                 2711 	push	af
   0148 33                 2712 	inc	sp
                           2713 ; genIpush
   0149 3E 00              2714 	ld	a,#0x00
   014B F5                 2715 	push	af
   014C 33                 2716 	inc	sp
                           2717 ; genCall
   014D CD 00 00           2718 	call	_set_sprite_tile
   0150 E8 02              2719 	lda	sp,2(sp)
                           2720 ;	main.c 64
                           2721 ; genIpush
   0152 3E 01              2722 	ld	a,#0x01
   0154 F5                 2723 	push	af
   0155 33                 2724 	inc	sp
                           2725 ; genIpush
   0156 3E 01              2726 	ld	a,#0x01
   0158 F5                 2727 	push	af
   0159 33                 2728 	inc	sp
                           2729 ; genCall
   015A CD 00 00           2730 	call	_set_sprite_tile
   015D E8 02              2731 	lda	sp,2(sp)
                           2732 ;	main.c 65
                           2733 ; genIpush
   015F 3E 02              2734 	ld	a,#0x02
   0161 F5                 2735 	push	af
   0162 33                 2736 	inc	sp
                           2737 ; genIpush
   0163 3E 02              2738 	ld	a,#0x02
   0165 F5                 2739 	push	af
   0166 33                 2740 	inc	sp
                           2741 ; genCall
   0167 CD 00 00           2742 	call	_set_sprite_tile
   016A E8 02              2743 	lda	sp,2(sp)
                           2744 ;	main.c 66
                           2745 ; genIpush
   016C 3E 03              2746 	ld	a,#0x03
   016E F5                 2747 	push	af
   016F 33                 2748 	inc	sp
                           2749 ; genIpush
   0170 3E 03              2750 	ld	a,#0x03
   0172 F5                 2751 	push	af
   0173 33                 2752 	inc	sp
                           2753 ; genCall
   0174 CD 00 00           2754 	call	_set_sprite_tile
   0177 E8 02              2755 	lda	sp,2(sp)
                           2756 ;	main.c 70
                           2757 ; genIpush
                           2758 ; AOP_HL for _playery
   0179 21 61 01           2759 	ld	hl,#_playery + 0
   017C 7E                 2760 	ld	a,(hl)
   017D F5                 2761 	push	af
   017E 33                 2762 	inc	sp
                           2763 ; genIpush
                           2764 ; AOP_HL for _playerx
   017F 21 60 01           2765 	ld	hl,#_playerx + 0
   0182 7E                 2766 	ld	a,(hl)
   0183 F5                 2767 	push	af
   0184 33                 2768 	inc	sp
                           2769 ; genIpush
   0185 3E 00              2770 	ld	a,#0x00
   0187 F5                 2771 	push	af
   0188 33                 2772 	inc	sp
                           2773 ; genCall
   0189 CD 00 00           2774 	call	_move_sprite
   018C E8 03              2775 	lda	sp,3(sp)
                           2776 ;	main.c 71
                           2777 ; genPlus
                           2778 ; AOP_HL for _playery
                           2779 ; genPlusIncr
                           2780 ;	genPlusIncr failed
   018E 21 61 01           2781 	ld	hl,#_playery + 0
   0191 7E                 2782 	ld	a,(hl)
   0192 C6 08              2783 	add	a,#0x08
   0194 4F                 2784 	ld	c,a
                           2785 ; genIpush
   0195 79                 2786 	ld	a,c
   0196 F5                 2787 	push	af
   0197 33                 2788 	inc	sp
                           2789 ; genIpush
                           2790 ; AOP_HL for _playerx
   0198 21 60 01           2791 	ld	hl,#_playerx + 0
   019B 7E                 2792 	ld	a,(hl)
   019C F5                 2793 	push	af
   019D 33                 2794 	inc	sp
                           2795 ; genIpush
   019E 3E 01              2796 	ld	a,#0x01
   01A0 F5                 2797 	push	af
   01A1 33                 2798 	inc	sp
                           2799 ; genCall
   01A2 CD 00 00           2800 	call	_move_sprite
   01A5 E8 03              2801 	lda	sp,3(sp)
                           2802 ;	main.c 72
                           2803 ; genPlus
                           2804 ; AOP_HL for _playerx
                           2805 ; genPlusIncr
                           2806 ;	genPlusIncr failed
   01A7 21 60 01           2807 	ld	hl,#_playerx + 0
   01AA 7E                 2808 	ld	a,(hl)
   01AB C6 08              2809 	add	a,#0x08
   01AD 47                 2810 	ld	b,a
                           2811 ; genIpush
                           2812 ; AOP_HL for _playery
   01AE 21 61 01           2813 	ld	hl,#_playery + 0
   01B1 7E                 2814 	ld	a,(hl)
   01B2 F5                 2815 	push	af
   01B3 33                 2816 	inc	sp
                           2817 ; genIpush
   01B4 78                 2818 	ld	a,b
   01B5 F5                 2819 	push	af
   01B6 33                 2820 	inc	sp
                           2821 ; genIpush
   01B7 3E 02              2822 	ld	a,#0x02
   01B9 F5                 2823 	push	af
   01BA 33                 2824 	inc	sp
                           2825 ; genCall
   01BB CD 00 00           2826 	call	_move_sprite
   01BE E8 03              2827 	lda	sp,3(sp)
                           2828 ;	main.c 73
                           2829 ; genIpush
   01C0 79                 2830 	ld	a,c
   01C1 F5                 2831 	push	af
   01C2 33                 2832 	inc	sp
                           2833 ; genIpush
   01C3 78                 2834 	ld	a,b
   01C4 F5                 2835 	push	af
   01C5 33                 2836 	inc	sp
                           2837 ; genIpush
   01C6 3E 03              2838 	ld	a,#0x03
   01C8 F5                 2839 	push	af
   01C9 33                 2840 	inc	sp
                           2841 ; genCall
   01CA CD 00 00           2842 	call	_move_sprite
   01CD E8 03              2843 	lda	sp,3(sp)
                           2844 ;	main.c 77
                           2845 ; genIpush
   01CF 3E 12              2846 	ld	a,#0x12
   01D1 F5                 2847 	push	af
   01D2 33                 2848 	inc	sp
                           2849 ; genIpush
   01D3 3E 04              2850 	ld	a,#0x04
   01D5 F5                 2851 	push	af
   01D6 33                 2852 	inc	sp
                           2853 ; genCall
   01D7 CD 00 00           2854 	call	_set_sprite_tile
   01DA E8 02              2855 	lda	sp,2(sp)
                           2856 ;	main.c 78
                           2857 ; genIpush
   01DC 3E 13              2858 	ld	a,#0x13
   01DE F5                 2859 	push	af
   01DF 33                 2860 	inc	sp
                           2861 ; genIpush
   01E0 3E 05              2862 	ld	a,#0x05
   01E2 F5                 2863 	push	af
   01E3 33                 2864 	inc	sp
                           2865 ; genCall
   01E4 CD 00 00           2866 	call	_set_sprite_tile
   01E7 E8 02              2867 	lda	sp,2(sp)
                           2868 ;	main.c 79
                           2869 ; genIpush
   01E9 3E 14              2870 	ld	a,#0x14
   01EB F5                 2871 	push	af
   01EC 33                 2872 	inc	sp
                           2873 ; genIpush
   01ED 3E 06              2874 	ld	a,#0x06
   01EF F5                 2875 	push	af
   01F0 33                 2876 	inc	sp
                           2877 ; genCall
   01F1 CD 00 00           2878 	call	_set_sprite_tile
   01F4 E8 02              2879 	lda	sp,2(sp)
                           2880 ;	main.c 80
                           2881 ; genIpush
   01F6 3E 15              2882 	ld	a,#0x15
   01F8 F5                 2883 	push	af
   01F9 33                 2884 	inc	sp
                           2885 ; genIpush
   01FA 3E 07              2886 	ld	a,#0x07
   01FC F5                 2887 	push	af
   01FD 33                 2888 	inc	sp
                           2889 ; genCall
   01FE CD 00 00           2890 	call	_set_sprite_tile
   0201 E8 02              2891 	lda	sp,2(sp)
                           2892 ;	main.c 84
                           2893 ; genIpush
                           2894 ; AOP_HL for _npcy
   0203 21 66 01           2895 	ld	hl,#_npcy + 0
   0206 7E                 2896 	ld	a,(hl)
   0207 F5                 2897 	push	af
   0208 33                 2898 	inc	sp
                           2899 ; genIpush
                           2900 ; AOP_HL for _npcx
   0209 21 65 01           2901 	ld	hl,#_npcx + 0
   020C 7E                 2902 	ld	a,(hl)
   020D F5                 2903 	push	af
   020E 33                 2904 	inc	sp
                           2905 ; genIpush
   020F 3E 04              2906 	ld	a,#0x04
   0211 F5                 2907 	push	af
   0212 33                 2908 	inc	sp
                           2909 ; genCall
   0213 CD 00 00           2910 	call	_move_sprite
   0216 E8 03              2911 	lda	sp,3(sp)
                           2912 ;	main.c 85
                           2913 ; genPlus
                           2914 ; AOP_HL for _npcy
                           2915 ; genPlusIncr
                           2916 ;	genPlusIncr failed
   0218 21 66 01           2917 	ld	hl,#_npcy + 0
   021B 7E                 2918 	ld	a,(hl)
   021C C6 08              2919 	add	a,#0x08
   021E 4F                 2920 	ld	c,a
                           2921 ; genIpush
   021F 79                 2922 	ld	a,c
   0220 F5                 2923 	push	af
   0221 33                 2924 	inc	sp
                           2925 ; genIpush
                           2926 ; AOP_HL for _npcx
   0222 21 65 01           2927 	ld	hl,#_npcx + 0
   0225 7E                 2928 	ld	a,(hl)
   0226 F5                 2929 	push	af
   0227 33                 2930 	inc	sp
                           2931 ; genIpush
   0228 3E 05              2932 	ld	a,#0x05
   022A F5                 2933 	push	af
   022B 33                 2934 	inc	sp
                           2935 ; genCall
   022C CD 00 00           2936 	call	_move_sprite
   022F E8 03              2937 	lda	sp,3(sp)
                           2938 ;	main.c 86
                           2939 ; genPlus
                           2940 ; AOP_HL for _npcx
                           2941 ; genPlusIncr
                           2942 ;	genPlusIncr failed
   0231 21 65 01           2943 	ld	hl,#_npcx + 0
   0234 7E                 2944 	ld	a,(hl)
   0235 C6 08              2945 	add	a,#0x08
   0237 47                 2946 	ld	b,a
                           2947 ; genIpush
                           2948 ; AOP_HL for _npcy
   0238 21 66 01           2949 	ld	hl,#_npcy + 0
   023B 7E                 2950 	ld	a,(hl)
   023C F5                 2951 	push	af
   023D 33                 2952 	inc	sp
                           2953 ; genIpush
   023E 78                 2954 	ld	a,b
   023F F5                 2955 	push	af
   0240 33                 2956 	inc	sp
                           2957 ; genIpush
   0241 3E 06              2958 	ld	a,#0x06
   0243 F5                 2959 	push	af
   0244 33                 2960 	inc	sp
                           2961 ; genCall
   0245 CD 00 00           2962 	call	_move_sprite
   0248 E8 03              2963 	lda	sp,3(sp)
                           2964 ;	main.c 87
                           2965 ; genIpush
   024A 79                 2966 	ld	a,c
   024B F5                 2967 	push	af
   024C 33                 2968 	inc	sp
                           2969 ; genIpush
   024D 78                 2970 	ld	a,b
   024E F5                 2971 	push	af
   024F 33                 2972 	inc	sp
                           2973 ; genIpush
   0250 3E 07              2974 	ld	a,#0x07
   0252 F5                 2975 	push	af
   0253 33                 2976 	inc	sp
                           2977 ; genCall
   0254 CD 00 00           2978 	call	_move_sprite
   0257 E8 03              2979 	lda	sp,3(sp)
                           2980 ;	main.c 89
                           2981 ; genOr
                           2982 ; AOP_SFR for _LCDC_REG
                           2983 ; Type res[4] = l[4]&r[1]
                           2984 ; Size res[1] = l[1]&r[1]
   0259 F0 00              2985 	ldh	a,(_LCDC_REG+0) ; x
   025B F6 02              2986 	or	a,#0x02
   025D E0 00              2987 	ldh	(_LCDC_REG+0),a
                           2988 ;	main.c 90
                           2989 ; genOr
                           2990 ; AOP_SFR for _LCDC_REG
                           2991 ; Type res[4] = l[4]&r[1]
                           2992 ; Size res[1] = l[1]&r[1]
   025F F0 00              2993 	ldh	a,(_LCDC_REG+0) ; x
   0261 F6 80              2994 	or	a,#0x80
   0263 E0 00              2995 	ldh	(_LCDC_REG+0),a
                           2996 ;	main.c 93
                           2997 ; genLabel
   0265                    2998 00140$:
                           2999 ;	main.c 95
                           3000 ; genCall
   0265 CD 00 00           3001 	call	_joypad
   0268 4B                 3002 	ld	c,e
                           3003 ; genCmpEq
   0269 79                 3004 	ld	a,c ; 2
   026A FE 08              3005 	cp	a,#0x08
   026C C2 71 02           3006 	jp	nz,00160$
   026F 18 03              3007 	jr	00161$
   0271                    3008 00160$:
   0271 C3 36 04           3009 	jp	00108$
   0274                    3010 00161$:
                           3011 ;	main.c 97
                           3012 ; genIpush
   0274 3E 00              3013 	ld	a,#0x00
   0276 F5                 3014 	push	af
   0277 33                 3015 	inc	sp
                           3016 ; genIpush
   0278 3E 00              3017 	ld	a,#0x00
   027A F5                 3018 	push	af
   027B 33                 3019 	inc	sp
                           3020 ; genCall
   027C CD 00 00           3021 	call	_set_sprite_tile
   027F E8 02              3022 	lda	sp,2(sp)
                           3023 ;	main.c 98
                           3024 ; genIpush
   0281 3E 01              3025 	ld	a,#0x01
   0283 F5                 3026 	push	af
   0284 33                 3027 	inc	sp
                           3028 ; genIpush
   0285 3E 01              3029 	ld	a,#0x01
   0287 F5                 3030 	push	af
   0288 33                 3031 	inc	sp
                           3032 ; genCall
   0289 CD 00 00           3033 	call	_set_sprite_tile
   028C E8 02              3034 	lda	sp,2(sp)
                           3035 ;	main.c 99
                           3036 ; genIpush
   028E 3E 02              3037 	ld	a,#0x02
   0290 F5                 3038 	push	af
   0291 33                 3039 	inc	sp
                           3040 ; genIpush
   0292 3E 02              3041 	ld	a,#0x02
   0294 F5                 3042 	push	af
   0295 33                 3043 	inc	sp
                           3044 ; genCall
   0296 CD 00 00           3045 	call	_set_sprite_tile
   0299 E8 02              3046 	lda	sp,2(sp)
                           3047 ;	main.c 100
                           3048 ; genIpush
   029B 3E 03              3049 	ld	a,#0x03
   029D F5                 3050 	push	af
   029E 33                 3051 	inc	sp
                           3052 ; genIpush
   029F 3E 03              3053 	ld	a,#0x03
   02A1 F5                 3054 	push	af
   02A2 33                 3055 	inc	sp
                           3056 ; genCall
   02A3 CD 00 00           3057 	call	_set_sprite_tile
   02A6 E8 02              3058 	lda	sp,2(sp)
                           3059 ;	main.c 103
                           3060 ; genIpush
   02A8 3E 01              3061 	ld	a,#0x01
   02AA F5                 3062 	push	af
   02AB 33                 3063 	inc	sp
                           3064 ; genCall
   02AC CD 00 00           3065 	call	_get_sprite_prop
   02AF 4B                 3066 	ld	c,e
   02B0 E8 01              3067 	lda	sp,1(sp)
                           3068 ; genAnd
   02B2 79                 3069 	ld	a,c
   02B3 E6 DF              3070 	and	a,#0xDF
   02B5 4F                 3071 	ld	c,a
                           3072 ; genIpush
   02B6 79                 3073 	ld	a,c
   02B7 F5                 3074 	push	af
   02B8 33                 3075 	inc	sp
                           3076 ; genIpush
   02B9 3E 01              3077 	ld	a,#0x01
   02BB F5                 3078 	push	af
   02BC 33                 3079 	inc	sp
                           3080 ; genCall
   02BD CD 00 00           3081 	call	_set_sprite_prop
   02C0 E8 02              3082 	lda	sp,2(sp)
                           3083 ;	main.c 104
                           3084 ; genIpush
   02C2 3E 01              3085 	ld	a,#0x01
   02C4 F5                 3086 	push	af
   02C5 33                 3087 	inc	sp
                           3088 ; genCall
   02C6 CD 00 00           3089 	call	_get_sprite_prop
   02C9 4B                 3090 	ld	c,e
   02CA E8 01              3091 	lda	sp,1(sp)
                           3092 ; genAnd
   02CC 79                 3093 	ld	a,c
   02CD E6 DF              3094 	and	a,#0xDF
   02CF 4F                 3095 	ld	c,a
                           3096 ; genIpush
   02D0 79                 3097 	ld	a,c
   02D1 F5                 3098 	push	af
   02D2 33                 3099 	inc	sp
                           3100 ; genIpush
   02D3 3E 03              3101 	ld	a,#0x03
   02D5 F5                 3102 	push	af
   02D6 33                 3103 	inc	sp
                           3104 ; genCall
   02D7 CD 00 00           3105 	call	_set_sprite_prop
   02DA E8 02              3106 	lda	sp,2(sp)
                           3107 ;	main.c 105
                           3108 ; genIpush
   02DC 3E 01              3109 	ld	a,#0x01
   02DE F5                 3110 	push	af
   02DF 33                 3111 	inc	sp
                           3112 ; genCall
   02E0 CD 00 00           3113 	call	_get_sprite_prop
   02E3 4B                 3114 	ld	c,e
   02E4 E8 01              3115 	lda	sp,1(sp)
                           3116 ; genAnd
   02E6 79                 3117 	ld	a,c
   02E7 E6 DF              3118 	and	a,#0xDF
   02E9 4F                 3119 	ld	c,a
                           3120 ; genIpush
   02EA 79                 3121 	ld	a,c
   02EB F5                 3122 	push	af
   02EC 33                 3123 	inc	sp
                           3124 ; genIpush
   02ED 3E 00              3125 	ld	a,#0x00
   02EF F5                 3126 	push	af
   02F0 33                 3127 	inc	sp
                           3128 ; genCall
   02F1 CD 00 00           3129 	call	_set_sprite_prop
   02F4 E8 02              3130 	lda	sp,2(sp)
                           3131 ;	main.c 106
                           3132 ; genIpush
   02F6 3E 01              3133 	ld	a,#0x01
   02F8 F5                 3134 	push	af
   02F9 33                 3135 	inc	sp
                           3136 ; genCall
   02FA CD 00 00           3137 	call	_get_sprite_prop
   02FD 4B                 3138 	ld	c,e
   02FE E8 01              3139 	lda	sp,1(sp)
                           3140 ; genAnd
   0300 79                 3141 	ld	a,c
   0301 E6 DF              3142 	and	a,#0xDF
   0303 4F                 3143 	ld	c,a
                           3144 ; genIpush
   0304 79                 3145 	ld	a,c
   0305 F5                 3146 	push	af
   0306 33                 3147 	inc	sp
                           3148 ; genIpush
   0307 3E 02              3149 	ld	a,#0x02
   0309 F5                 3150 	push	af
   030A 33                 3151 	inc	sp
                           3152 ; genCall
   030B CD 00 00           3153 	call	_set_sprite_prop
   030E E8 02              3154 	lda	sp,2(sp)
                           3155 ;	main.c 108
                           3156 ; genCmpEq
                           3157 ; AOP_HL for _walkderetion
   0310 21 62 01           3158 	ld	hl,#_walkderetion + 0
   0313 7E                 3159 	ld	a,(hl)
   0314 B7                 3160 	or	a,a
   0315 C2 1C 03           3161 	jp	nz,00162$
   0318 3E 01              3162 	ld	a,#0x01
   031A 18 01              3163 	jr	00163$
   031C                    3164 00162$:
   031C AF                 3165 	xor	a,a
   031D                    3166 00163$:
   031D 4F                 3167 	ld	c,a
                           3168 ; genPlus
                           3169 ; AOP_HL for _playery
                           3170 ; genPlusIncr
                           3171 ;	genPlusIncr failed
   031E 21 61 01           3172 	ld	hl,#_playery + 0
   0321 7E                 3173 	ld	a,(hl)
   0322 C6 10              3174 	add	a,#0x10
   0324 47                 3175 	ld	b,a
                           3176 ; genIpush
   0325 78                 3177 	ld	a,b
   0326 F5                 3178 	push	af
   0327 33                 3179 	inc	sp
                           3180 ; genIpush
                           3181 ; AOP_HL for _playerx
   0328 21 60 01           3182 	ld	hl,#_playerx + 0
   032B 7E                 3183 	ld	a,(hl)
   032C F5                 3184 	push	af
   032D 33                 3185 	inc	sp
                           3186 ; genCall
   032E CD 9E 00           3187 	call	_maywalk
   0331 43                 3188 	ld	b,e
   0332 E8 02              3189 	lda	sp,2(sp)
                           3190 ; genAnd
   0334 79                 3191 	ld	a,c
   0335 A0                 3192 	and	a,b
   0336 4F                 3193 	ld	c,a
                           3194 ; genIfx
                           3195 ; Removed redundent or a,a
   0337 AF                 3196 	xor	a,a
   0338 B1                 3197 	or	a,c
   0339 CA 28 04           3198 	jp	z,00105$
                           3199 ;	main.c 110
                           3200 ; genIpush
                           3201 ; AOP_HL for _walkdelay
   033C 21 63 01           3202 	ld	hl,#_walkdelay + 0
   033F 7E                 3203 	ld	a,(hl)
   0340 F5                 3204 	push	af
   0341 33                 3205 	inc	sp
                           3206 ; genIpush
   0342 3E 02              3207 	ld	a,#0x02
   0344 F5                 3208 	push	af
   0345 33                 3209 	inc	sp
                           3210 ; genIpush
   0346 3E 04              3211 	ld	a,#0x04
   0348 F5                 3212 	push	af
   0349 33                 3213 	inc	sp
                           3214 ; genIpush
   034A 21 61 01           3215 	ld	hl,#_playery + 0
   034D E5                 3216 	push	hl
                           3217 ; genCall
   034E CD 59 00           3218 	call	_walk
   0351 E8 05              3219 	lda	sp,5(sp)
                           3220 ;	main.c 111
                           3221 ; genIfx
                           3222 ; AOP_HL for _walkanimation
   0353 AF                 3223 	xor	a,a
   0354 21 68 01           3224 	ld	hl,#_walkanimation + 0
   0357 B6                 3225 	or	a,(hl)
   0358 B7                 3226 	or	a,a
   0359 CA 81 03           3227 	jp	z,00102$
                           3228 ;	main.c 112
                           3229 ; genIpush
   035C 3E 04              3230 	ld	a,#0x04
   035E F5                 3231 	push	af
   035F 33                 3232 	inc	sp
                           3233 ; genIpush
   0360 3E 01              3234 	ld	a,#0x01
   0362 F5                 3235 	push	af
   0363 33                 3236 	inc	sp
                           3237 ; genCall
   0364 CD 00 00           3238 	call	_set_sprite_tile
   0367 E8 02              3239 	lda	sp,2(sp)
                           3240 ;	main.c 114
                           3241 ; genIpush
   0369 3E 05              3242 	ld	a,#0x05
   036B F5                 3243 	push	af
   036C 33                 3244 	inc	sp
                           3245 ; genIpush
   036D 3E 03              3246 	ld	a,#0x03
   036F F5                 3247 	push	af
   0370 33                 3248 	inc	sp
                           3249 ; genCall
   0371 CD 00 00           3250 	call	_set_sprite_tile
   0374 E8 02              3251 	lda	sp,2(sp)
                           3252 ;	main.c 117
                           3253 ; genCall
   0376 CD 00 00           3254 	call	_display
                           3255 ;	main.c 118
                           3256 ; genAssign
                           3257 ; AOP_HL for _walkanimation
   0379 21 68 01           3258 	ld	hl,#_walkanimation + 0
   037C 36 00              3259 	ld	(hl),#0x00
                           3260 ; genGoto
   037E C3 BD 03           3261 	jp	00103$
                           3262 ; genLabel
   0381                    3263 00102$:
                           3264 ;	main.c 120
                           3265 ; genIpush
   0381 3E 05              3266 	ld	a,#0x05
   0383 F5                 3267 	push	af
   0384 33                 3268 	inc	sp
                           3269 ; genIpush
   0385 3E 01              3270 	ld	a,#0x01
   0387 F5                 3271 	push	af
   0388 33                 3272 	inc	sp
                           3273 ; genCall
   0389 CD 00 00           3274 	call	_set_sprite_tile
   038C E8 02              3275 	lda	sp,2(sp)
                           3276 ;	main.c 121
                           3277 ; genIpush
   038E 3E 20              3278 	ld	a,#0x20
   0390 F5                 3279 	push	af
   0391 33                 3280 	inc	sp
                           3281 ; genIpush
   0392 3E 01              3282 	ld	a,#0x01
   0394 F5                 3283 	push	af
   0395 33                 3284 	inc	sp
                           3285 ; genCall
   0396 CD 00 00           3286 	call	_set_sprite_prop
   0399 E8 02              3287 	lda	sp,2(sp)
                           3288 ;	main.c 122
                           3289 ; genIpush
   039B 3E 04              3290 	ld	a,#0x04
   039D F5                 3291 	push	af
   039E 33                 3292 	inc	sp
                           3293 ; genIpush
   039F 3E 03              3294 	ld	a,#0x03
   03A1 F5                 3295 	push	af
   03A2 33                 3296 	inc	sp
                           3297 ; genCall
   03A3 CD 00 00           3298 	call	_set_sprite_tile
   03A6 E8 02              3299 	lda	sp,2(sp)
                           3300 ;	main.c 123
                           3301 ; genIpush
   03A8 3E 20              3302 	ld	a,#0x20
   03AA F5                 3303 	push	af
   03AB 33                 3304 	inc	sp
                           3305 ; genIpush
   03AC 3E 03              3306 	ld	a,#0x03
   03AE F5                 3307 	push	af
   03AF 33                 3308 	inc	sp
                           3309 ; genCall
   03B0 CD 00 00           3310 	call	_set_sprite_prop
   03B3 E8 02              3311 	lda	sp,2(sp)
                           3312 ;	main.c 124
                           3313 ; genCall
   03B5 CD 00 00           3314 	call	_display
                           3315 ;	main.c 126
                           3316 ; genAssign
                           3317 ; AOP_HL for _walkanimation
   03B8 21 68 01           3318 	ld	hl,#_walkanimation + 0
   03BB 36 01              3319 	ld	(hl),#0x01
                           3320 ; genLabel
   03BD                    3321 00103$:
                           3322 ;	main.c 129
                           3323 ; genIpush
                           3324 ; AOP_HL for _walkdelay
   03BD 21 63 01           3325 	ld	hl,#_walkdelay + 0
   03C0 7E                 3326 	ld	a,(hl)
   03C1 F5                 3327 	push	af
   03C2 33                 3328 	inc	sp
                           3329 ; genIpush
   03C3 3E 02              3330 	ld	a,#0x02
   03C5 F5                 3331 	push	af
   03C6 33                 3332 	inc	sp
                           3333 ; genIpush
   03C7 3E 04              3334 	ld	a,#0x04
   03C9 F5                 3335 	push	af
   03CA 33                 3336 	inc	sp
                           3337 ; genIpush
   03CB 21 61 01           3338 	ld	hl,#_playery + 0
   03CE E5                 3339 	push	hl
                           3340 ; genCall
   03CF CD 59 00           3341 	call	_walk
   03D2 E8 05              3342 	lda	sp,5(sp)
                           3343 ;	main.c 132
                           3344 ; genIpush
   03D4 3E 01              3345 	ld	a,#0x01
   03D6 F5                 3346 	push	af
   03D7 33                 3347 	inc	sp
                           3348 ; genIpush
   03D8 3E 01              3349 	ld	a,#0x01
   03DA F5                 3350 	push	af
   03DB 33                 3351 	inc	sp
                           3352 ; genCall
   03DC CD 00 00           3353 	call	_set_sprite_tile
   03DF E8 02              3354 	lda	sp,2(sp)
                           3355 ;	main.c 133
                           3356 ; genIpush
   03E1 3E 01              3357 	ld	a,#0x01
   03E3 F5                 3358 	push	af
   03E4 33                 3359 	inc	sp
                           3360 ; genCall
   03E5 CD 00 00           3361 	call	_get_sprite_prop
   03E8 4B                 3362 	ld	c,e
   03E9 E8 01              3363 	lda	sp,1(sp)
                           3364 ; genAnd
   03EB 79                 3365 	ld	a,c
   03EC E6 DF              3366 	and	a,#0xDF
   03EE 4F                 3367 	ld	c,a
                           3368 ; genIpush
   03EF 79                 3369 	ld	a,c
   03F0 F5                 3370 	push	af
   03F1 33                 3371 	inc	sp
                           3372 ; genIpush
   03F2 3E 01              3373 	ld	a,#0x01
   03F4 F5                 3374 	push	af
   03F5 33                 3375 	inc	sp
                           3376 ; genCall
   03F6 CD 00 00           3377 	call	_set_sprite_prop
   03F9 E8 02              3378 	lda	sp,2(sp)
                           3379 ;	main.c 134
                           3380 ; genIpush
   03FB 3E 03              3381 	ld	a,#0x03
   03FD F5                 3382 	push	af
   03FE 33                 3383 	inc	sp
                           3384 ; genIpush
   03FF 3E 03              3385 	ld	a,#0x03
   0401 F5                 3386 	push	af
   0402 33                 3387 	inc	sp
                           3388 ; genCall
   0403 CD 00 00           3389 	call	_set_sprite_tile
   0406 E8 02              3390 	lda	sp,2(sp)
                           3391 ;	main.c 135
                           3392 ; genIpush
   0408 3E 03              3393 	ld	a,#0x03
   040A F5                 3394 	push	af
   040B 33                 3395 	inc	sp
                           3396 ; genCall
   040C CD 00 00           3397 	call	_get_sprite_prop
   040F 4B                 3398 	ld	c,e
   0410 E8 01              3399 	lda	sp,1(sp)
                           3400 ; genAnd
   0412 79                 3401 	ld	a,c
   0413 E6 DF              3402 	and	a,#0xDF
   0415 4F                 3403 	ld	c,a
                           3404 ; genIpush
   0416 79                 3405 	ld	a,c
   0417 F5                 3406 	push	af
   0418 33                 3407 	inc	sp
                           3408 ; genIpush
   0419 3E 03              3409 	ld	a,#0x03
   041B F5                 3410 	push	af
   041C 33                 3411 	inc	sp
                           3412 ; genCall
   041D CD 00 00           3413 	call	_set_sprite_prop
   0420 E8 02              3414 	lda	sp,2(sp)
                           3415 ;	main.c 136
                           3416 ; genCall
   0422 CD 00 00           3417 	call	_display
                           3418 ; genGoto
   0425 C3 36 04           3419 	jp	00108$
                           3420 ; genLabel
   0428                    3421 00105$:
                           3422 ;	main.c 138
                           3423 ; genAssign
                           3424 ; AOP_HL for _walkderetion
   0428 21 62 01           3425 	ld	hl,#_walkderetion + 0
   042B 36 00              3426 	ld	(hl),#0x00
                           3427 ;	main.c 139
                           3428 ; genIpush
   042D 21 64 00           3429 	ld	hl,#0x0064
   0430 E5                 3430 	push	hl
                           3431 ; genCall
   0431 CD 00 00           3432 	call	_delay
   0434 E8 02              3433 	lda	sp,2(sp)
                           3434 ; genLabel
   0436                    3435 00108$:
                           3436 ;	main.c 146
                           3437 ; genCall
   0436 CD 00 00           3438 	call	_joypad
   0439 4B                 3439 	ld	c,e
                           3440 ; genCmpEq
   043A 79                 3441 	ld	a,c ; 2
   043B FE 04              3442 	cp	a,#0x04
   043D C2 42 04           3443 	jp	nz,00164$
   0440 18 03              3444 	jr	00165$
   0442                    3445 00164$:
   0442 C3 08 06           3446 	jp	00116$
   0445                    3447 00165$:
                           3448 ;	main.c 147
                           3449 ; genIpush
   0445 3E 06              3450 	ld	a,#0x06
   0447 F5                 3451 	push	af
   0448 33                 3452 	inc	sp
                           3453 ; genIpush
   0449 3E 00              3454 	ld	a,#0x00
   044B F5                 3455 	push	af
   044C 33                 3456 	inc	sp
                           3457 ; genCall
   044D CD 00 00           3458 	call	_set_sprite_tile
   0450 E8 02              3459 	lda	sp,2(sp)
                           3460 ;	main.c 148
                           3461 ; genIpush
   0452 3E 08              3462 	ld	a,#0x08
   0454 F5                 3463 	push	af
   0455 33                 3464 	inc	sp
                           3465 ; genIpush
   0456 3E 02              3466 	ld	a,#0x02
   0458 F5                 3467 	push	af
   0459 33                 3468 	inc	sp
                           3469 ; genCall
   045A CD 00 00           3470 	call	_set_sprite_tile
   045D E8 02              3471 	lda	sp,2(sp)
                           3472 ;	main.c 149
                           3473 ; genIpush
   045F 3E 07              3474 	ld	a,#0x07
   0461 F5                 3475 	push	af
   0462 33                 3476 	inc	sp
                           3477 ; genIpush
   0463 3E 01              3478 	ld	a,#0x01
   0465 F5                 3479 	push	af
   0466 33                 3480 	inc	sp
                           3481 ; genCall
   0467 CD 00 00           3482 	call	_set_sprite_tile
   046A E8 02              3483 	lda	sp,2(sp)
                           3484 ;	main.c 150
                           3485 ; genIpush
   046C 3E 09              3486 	ld	a,#0x09
   046E F5                 3487 	push	af
   046F 33                 3488 	inc	sp
                           3489 ; genIpush
   0470 3E 03              3490 	ld	a,#0x03
   0472 F5                 3491 	push	af
   0473 33                 3492 	inc	sp
                           3493 ; genCall
   0474 CD 00 00           3494 	call	_set_sprite_tile
   0477 E8 02              3495 	lda	sp,2(sp)
                           3496 ;	main.c 153
                           3497 ; genIpush
   0479 3E 01              3498 	ld	a,#0x01
   047B F5                 3499 	push	af
   047C 33                 3500 	inc	sp
                           3501 ; genCall
   047D CD 00 00           3502 	call	_get_sprite_prop
   0480 4B                 3503 	ld	c,e
   0481 E8 01              3504 	lda	sp,1(sp)
                           3505 ; genAnd
   0483 79                 3506 	ld	a,c
   0484 E6 DF              3507 	and	a,#0xDF
   0486 4F                 3508 	ld	c,a
                           3509 ; genIpush
   0487 79                 3510 	ld	a,c
   0488 F5                 3511 	push	af
   0489 33                 3512 	inc	sp
                           3513 ; genIpush
   048A 3E 01              3514 	ld	a,#0x01
   048C F5                 3515 	push	af
   048D 33                 3516 	inc	sp
                           3517 ; genCall
   048E CD 00 00           3518 	call	_set_sprite_prop
   0491 E8 02              3519 	lda	sp,2(sp)
                           3520 ;	main.c 154
                           3521 ; genIpush
   0493 3E 01              3522 	ld	a,#0x01
   0495 F5                 3523 	push	af
   0496 33                 3524 	inc	sp
                           3525 ; genCall
   0497 CD 00 00           3526 	call	_get_sprite_prop
   049A 4B                 3527 	ld	c,e
   049B E8 01              3528 	lda	sp,1(sp)
                           3529 ; genAnd
   049D 79                 3530 	ld	a,c
   049E E6 DF              3531 	and	a,#0xDF
   04A0 4F                 3532 	ld	c,a
                           3533 ; genIpush
   04A1 79                 3534 	ld	a,c
   04A2 F5                 3535 	push	af
   04A3 33                 3536 	inc	sp
                           3537 ; genIpush
   04A4 3E 03              3538 	ld	a,#0x03
   04A6 F5                 3539 	push	af
   04A7 33                 3540 	inc	sp
                           3541 ; genCall
   04A8 CD 00 00           3542 	call	_set_sprite_prop
   04AB E8 02              3543 	lda	sp,2(sp)
                           3544 ;	main.c 155
                           3545 ; genIpush
   04AD 3E 01              3546 	ld	a,#0x01
   04AF F5                 3547 	push	af
   04B0 33                 3548 	inc	sp
                           3549 ; genCall
   04B1 CD 00 00           3550 	call	_get_sprite_prop
   04B4 4B                 3551 	ld	c,e
   04B5 E8 01              3552 	lda	sp,1(sp)
                           3553 ; genAnd
   04B7 79                 3554 	ld	a,c
   04B8 E6 DF              3555 	and	a,#0xDF
   04BA 4F                 3556 	ld	c,a
                           3557 ; genIpush
   04BB 79                 3558 	ld	a,c
   04BC F5                 3559 	push	af
   04BD 33                 3560 	inc	sp
                           3561 ; genIpush
   04BE 3E 00              3562 	ld	a,#0x00
   04C0 F5                 3563 	push	af
   04C1 33                 3564 	inc	sp
                           3565 ; genCall
   04C2 CD 00 00           3566 	call	_set_sprite_prop
   04C5 E8 02              3567 	lda	sp,2(sp)
                           3568 ;	main.c 156
                           3569 ; genIpush
   04C7 3E 01              3570 	ld	a,#0x01
   04C9 F5                 3571 	push	af
   04CA 33                 3572 	inc	sp
                           3573 ; genCall
   04CB CD 00 00           3574 	call	_get_sprite_prop
   04CE 4B                 3575 	ld	c,e
   04CF E8 01              3576 	lda	sp,1(sp)
                           3577 ; genAnd
   04D1 79                 3578 	ld	a,c
   04D2 E6 DF              3579 	and	a,#0xDF
   04D4 4F                 3580 	ld	c,a
                           3581 ; genIpush
   04D5 79                 3582 	ld	a,c
   04D6 F5                 3583 	push	af
   04D7 33                 3584 	inc	sp
                           3585 ; genIpush
   04D8 3E 02              3586 	ld	a,#0x02
   04DA F5                 3587 	push	af
   04DB 33                 3588 	inc	sp
                           3589 ; genCall
   04DC CD 00 00           3590 	call	_set_sprite_prop
   04DF E8 02              3591 	lda	sp,2(sp)
                           3592 ;	main.c 158
                           3593 ; genCmpEq
                           3594 ; AOP_HL for _walkderetion
   04E1 21 62 01           3595 	ld	hl,#_walkderetion + 0
   04E4 7E                 3596 	ld	a,(hl) ; 2
   04E5 FE 02              3597 	cp	a,#0x02
   04E7 C2 EE 04           3598 	jp	nz,00166$
   04EA 3E 01              3599 	ld	a,#0x01
   04EC 18 01              3600 	jr	00167$
   04EE                    3601 00166$:
   04EE AF                 3602 	xor	a,a
   04EF                    3603 00167$:
   04EF 4F                 3604 	ld	c,a
                           3605 ; genMinus
                           3606 ; AOP_HL for _playery
   04F0 21 61 01           3607 	ld	hl,#_playery + 0
   04F3 7E                 3608 	ld	a,(hl)
   04F4 C6 F0              3609 	add	a,#0xF0
   04F6 47                 3610 	ld	b,a
                           3611 ; genIpush
   04F7 78                 3612 	ld	a,b
   04F8 F5                 3613 	push	af
   04F9 33                 3614 	inc	sp
                           3615 ; genIpush
                           3616 ; AOP_HL for _playerx
   04FA 21 60 01           3617 	ld	hl,#_playerx + 0
   04FD 7E                 3618 	ld	a,(hl)
   04FE F5                 3619 	push	af
   04FF 33                 3620 	inc	sp
                           3621 ; genCall
   0500 CD 9E 00           3622 	call	_maywalk
   0503 43                 3623 	ld	b,e
   0504 E8 02              3624 	lda	sp,2(sp)
                           3625 ; genAnd
   0506 79                 3626 	ld	a,c
   0507 A0                 3627 	and	a,b
   0508 4F                 3628 	ld	c,a
                           3629 ; genIfx
                           3630 ; Removed redundent or a,a
   0509 AF                 3631 	xor	a,a
   050A B1                 3632 	or	a,c
   050B CA FA 05           3633 	jp	z,00113$
                           3634 ;	main.c 160
                           3635 ; genIpush
                           3636 ; AOP_HL for _walkdelay
   050E 21 63 01           3637 	ld	hl,#_walkdelay + 0
   0511 7E                 3638 	ld	a,(hl)
   0512 F5                 3639 	push	af
   0513 33                 3640 	inc	sp
                           3641 ; genIpush
   0514 3E 02              3642 	ld	a,#0x02
   0516 F5                 3643 	push	af
   0517 33                 3644 	inc	sp
                           3645 ; genIpush
   0518 3E FC              3646 	ld	a,#0xFC
   051A F5                 3647 	push	af
   051B 33                 3648 	inc	sp
                           3649 ; genIpush
   051C 21 61 01           3650 	ld	hl,#_playery + 0
   051F E5                 3651 	push	hl
                           3652 ; genCall
   0520 CD 59 00           3653 	call	_walk
   0523 E8 05              3654 	lda	sp,5(sp)
                           3655 ;	main.c 161
                           3656 ; genIfx
                           3657 ; AOP_HL for _walkanimation
   0525 AF                 3658 	xor	a,a
   0526 21 68 01           3659 	ld	hl,#_walkanimation + 0
   0529 B6                 3660 	or	a,(hl)
   052A B7                 3661 	or	a,a
   052B CA 53 05           3662 	jp	z,00110$
                           3663 ;	main.c 162
                           3664 ; genIpush
   052E 3E 04              3665 	ld	a,#0x04
   0530 F5                 3666 	push	af
   0531 33                 3667 	inc	sp
                           3668 ; genIpush
   0532 3E 01              3669 	ld	a,#0x01
   0534 F5                 3670 	push	af
   0535 33                 3671 	inc	sp
                           3672 ; genCall
   0536 CD 00 00           3673 	call	_set_sprite_tile
   0539 E8 02              3674 	lda	sp,2(sp)
                           3675 ;	main.c 164
                           3676 ; genIpush
   053B 3E 05              3677 	ld	a,#0x05
   053D F5                 3678 	push	af
   053E 33                 3679 	inc	sp
                           3680 ; genIpush
   053F 3E 03              3681 	ld	a,#0x03
   0541 F5                 3682 	push	af
   0542 33                 3683 	inc	sp
                           3684 ; genCall
   0543 CD 00 00           3685 	call	_set_sprite_tile
   0546 E8 02              3686 	lda	sp,2(sp)
                           3687 ;	main.c 167
                           3688 ; genCall
   0548 CD 00 00           3689 	call	_display
                           3690 ;	main.c 168
                           3691 ; genAssign
                           3692 ; AOP_HL for _walkanimation
   054B 21 68 01           3693 	ld	hl,#_walkanimation + 0
   054E 36 00              3694 	ld	(hl),#0x00
                           3695 ; genGoto
   0550 C3 8F 05           3696 	jp	00111$
                           3697 ; genLabel
   0553                    3698 00110$:
                           3699 ;	main.c 170
                           3700 ; genIpush
   0553 3E 05              3701 	ld	a,#0x05
   0555 F5                 3702 	push	af
   0556 33                 3703 	inc	sp
                           3704 ; genIpush
   0557 3E 01              3705 	ld	a,#0x01
   0559 F5                 3706 	push	af
   055A 33                 3707 	inc	sp
                           3708 ; genCall
   055B CD 00 00           3709 	call	_set_sprite_tile
   055E E8 02              3710 	lda	sp,2(sp)
                           3711 ;	main.c 171
                           3712 ; genIpush
   0560 3E 20              3713 	ld	a,#0x20
   0562 F5                 3714 	push	af
   0563 33                 3715 	inc	sp
                           3716 ; genIpush
   0564 3E 01              3717 	ld	a,#0x01
   0566 F5                 3718 	push	af
   0567 33                 3719 	inc	sp
                           3720 ; genCall
   0568 CD 00 00           3721 	call	_set_sprite_prop
   056B E8 02              3722 	lda	sp,2(sp)
                           3723 ;	main.c 172
                           3724 ; genIpush
   056D 3E 04              3725 	ld	a,#0x04
   056F F5                 3726 	push	af
   0570 33                 3727 	inc	sp
                           3728 ; genIpush
   0571 3E 03              3729 	ld	a,#0x03
   0573 F5                 3730 	push	af
   0574 33                 3731 	inc	sp
                           3732 ; genCall
   0575 CD 00 00           3733 	call	_set_sprite_tile
   0578 E8 02              3734 	lda	sp,2(sp)
                           3735 ;	main.c 173
                           3736 ; genIpush
   057A 3E 20              3737 	ld	a,#0x20
   057C F5                 3738 	push	af
   057D 33                 3739 	inc	sp
                           3740 ; genIpush
   057E 3E 03              3741 	ld	a,#0x03
   0580 F5                 3742 	push	af
   0581 33                 3743 	inc	sp
                           3744 ; genCall
   0582 CD 00 00           3745 	call	_set_sprite_prop
   0585 E8 02              3746 	lda	sp,2(sp)
                           3747 ;	main.c 174
                           3748 ; genCall
   0587 CD 00 00           3749 	call	_display
                           3750 ;	main.c 176
                           3751 ; genAssign
                           3752 ; AOP_HL for _walkanimation
   058A 21 68 01           3753 	ld	hl,#_walkanimation + 0
   058D 36 01              3754 	ld	(hl),#0x01
                           3755 ; genLabel
   058F                    3756 00111$:
                           3757 ;	main.c 179
                           3758 ; genIpush
                           3759 ; AOP_HL for _walkdelay
   058F 21 63 01           3760 	ld	hl,#_walkdelay + 0
   0592 7E                 3761 	ld	a,(hl)
   0593 F5                 3762 	push	af
   0594 33                 3763 	inc	sp
                           3764 ; genIpush
   0595 3E 02              3765 	ld	a,#0x02
   0597 F5                 3766 	push	af
   0598 33                 3767 	inc	sp
                           3768 ; genIpush
   0599 3E FC              3769 	ld	a,#0xFC
   059B F5                 3770 	push	af
   059C 33                 3771 	inc	sp
                           3772 ; genIpush
   059D 21 61 01           3773 	ld	hl,#_playery + 0
   05A0 E5                 3774 	push	hl
                           3775 ; genCall
   05A1 CD 59 00           3776 	call	_walk
   05A4 E8 05              3777 	lda	sp,5(sp)
                           3778 ;	main.c 182
                           3779 ; genIpush
   05A6 3E 07              3780 	ld	a,#0x07
   05A8 F5                 3781 	push	af
   05A9 33                 3782 	inc	sp
                           3783 ; genIpush
   05AA 3E 01              3784 	ld	a,#0x01
   05AC F5                 3785 	push	af
   05AD 33                 3786 	inc	sp
                           3787 ; genCall
   05AE CD 00 00           3788 	call	_set_sprite_tile
   05B1 E8 02              3789 	lda	sp,2(sp)
                           3790 ;	main.c 183
                           3791 ; genIpush
   05B3 3E 01              3792 	ld	a,#0x01
   05B5 F5                 3793 	push	af
   05B6 33                 3794 	inc	sp
                           3795 ; genCall
   05B7 CD 00 00           3796 	call	_get_sprite_prop
   05BA 4B                 3797 	ld	c,e
   05BB E8 01              3798 	lda	sp,1(sp)
                           3799 ; genAnd
   05BD 79                 3800 	ld	a,c
   05BE E6 DF              3801 	and	a,#0xDF
   05C0 4F                 3802 	ld	c,a
                           3803 ; genIpush
   05C1 79                 3804 	ld	a,c
   05C2 F5                 3805 	push	af
   05C3 33                 3806 	inc	sp
                           3807 ; genIpush
   05C4 3E 01              3808 	ld	a,#0x01
   05C6 F5                 3809 	push	af
   05C7 33                 3810 	inc	sp
                           3811 ; genCall
   05C8 CD 00 00           3812 	call	_set_sprite_prop
   05CB E8 02              3813 	lda	sp,2(sp)
                           3814 ;	main.c 184
                           3815 ; genIpush
   05CD 3E 09              3816 	ld	a,#0x09
   05CF F5                 3817 	push	af
   05D0 33                 3818 	inc	sp
                           3819 ; genIpush
   05D1 3E 03              3820 	ld	a,#0x03
   05D3 F5                 3821 	push	af
   05D4 33                 3822 	inc	sp
                           3823 ; genCall
   05D5 CD 00 00           3824 	call	_set_sprite_tile
   05D8 E8 02              3825 	lda	sp,2(sp)
                           3826 ;	main.c 185
                           3827 ; genIpush
   05DA 3E 03              3828 	ld	a,#0x03
   05DC F5                 3829 	push	af
   05DD 33                 3830 	inc	sp
                           3831 ; genCall
   05DE CD 00 00           3832 	call	_get_sprite_prop
   05E1 4B                 3833 	ld	c,e
   05E2 E8 01              3834 	lda	sp,1(sp)
                           3835 ; genAnd
   05E4 79                 3836 	ld	a,c
   05E5 E6 DF              3837 	and	a,#0xDF
   05E7 4F                 3838 	ld	c,a
                           3839 ; genIpush
   05E8 79                 3840 	ld	a,c
   05E9 F5                 3841 	push	af
   05EA 33                 3842 	inc	sp
                           3843 ; genIpush
   05EB 3E 03              3844 	ld	a,#0x03
   05ED F5                 3845 	push	af
   05EE 33                 3846 	inc	sp
                           3847 ; genCall
   05EF CD 00 00           3848 	call	_set_sprite_prop
   05F2 E8 02              3849 	lda	sp,2(sp)
                           3850 ;	main.c 186
                           3851 ; genCall
   05F4 CD 00 00           3852 	call	_display
                           3853 ; genGoto
   05F7 C3 08 06           3854 	jp	00116$
                           3855 ; genLabel
   05FA                    3856 00113$:
                           3857 ;	main.c 188
                           3858 ; genAssign
                           3859 ; AOP_HL for _walkderetion
   05FA 21 62 01           3860 	ld	hl,#_walkderetion + 0
   05FD 36 02              3861 	ld	(hl),#0x02
                           3862 ;	main.c 189
                           3863 ; genIpush
   05FF 21 64 00           3864 	ld	hl,#0x0064
   0602 E5                 3865 	push	hl
                           3866 ; genCall
   0603 CD 00 00           3867 	call	_delay
   0606 E8 02              3868 	lda	sp,2(sp)
                           3869 ; genLabel
   0608                    3870 00116$:
                           3871 ;	main.c 195
                           3872 ; genCall
   0608 CD 00 00           3873 	call	_joypad
   060B 4B                 3874 	ld	c,e
                           3875 ; genCmpEq
   060C 79                 3876 	ld	a,c ; 2
   060D FE 02              3877 	cp	a,#0x02
   060F C2 14 06           3878 	jp	nz,00168$
   0612 18 03              3879 	jr	00169$
   0614                    3880 00168$:
   0614 C3 8C 07           3881 	jp	00124$
   0617                    3882 00169$:
                           3883 ;	main.c 196
                           3884 ; genIpush
   0617 3E 0A              3885 	ld	a,#0x0A
   0619 F5                 3886 	push	af
   061A 33                 3887 	inc	sp
                           3888 ; genIpush
   061B 3E 00              3889 	ld	a,#0x00
   061D F5                 3890 	push	af
   061E 33                 3891 	inc	sp
                           3892 ; genCall
   061F CD 00 00           3893 	call	_set_sprite_tile
   0622 E8 02              3894 	lda	sp,2(sp)
                           3895 ;	main.c 197
                           3896 ; genIpush
   0624 3E 0C              3897 	ld	a,#0x0C
   0626 F5                 3898 	push	af
   0627 33                 3899 	inc	sp
                           3900 ; genIpush
   0628 3E 02              3901 	ld	a,#0x02
   062A F5                 3902 	push	af
   062B 33                 3903 	inc	sp
                           3904 ; genCall
   062C CD 00 00           3905 	call	_set_sprite_tile
   062F E8 02              3906 	lda	sp,2(sp)
                           3907 ;	main.c 198
                           3908 ; genIpush
   0631 3E 0B              3909 	ld	a,#0x0B
   0633 F5                 3910 	push	af
   0634 33                 3911 	inc	sp
                           3912 ; genIpush
   0635 3E 01              3913 	ld	a,#0x01
   0637 F5                 3914 	push	af
   0638 33                 3915 	inc	sp
                           3916 ; genCall
   0639 CD 00 00           3917 	call	_set_sprite_tile
   063C E8 02              3918 	lda	sp,2(sp)
                           3919 ;	main.c 199
                           3920 ; genIpush
   063E 3E 0D              3921 	ld	a,#0x0D
   0640 F5                 3922 	push	af
   0641 33                 3923 	inc	sp
                           3924 ; genIpush
   0642 3E 03              3925 	ld	a,#0x03
   0644 F5                 3926 	push	af
   0645 33                 3927 	inc	sp
                           3928 ; genCall
   0646 CD 00 00           3929 	call	_set_sprite_tile
   0649 E8 02              3930 	lda	sp,2(sp)
                           3931 ;	main.c 200
                           3932 ; genIpush
   064B 3E 01              3933 	ld	a,#0x01
   064D F5                 3934 	push	af
   064E 33                 3935 	inc	sp
                           3936 ; genCall
   064F CD 00 00           3937 	call	_get_sprite_prop
   0652 4B                 3938 	ld	c,e
   0653 E8 01              3939 	lda	sp,1(sp)
                           3940 ; genAnd
   0655 79                 3941 	ld	a,c
   0656 E6 DF              3942 	and	a,#0xDF
   0658 4F                 3943 	ld	c,a
                           3944 ; genIpush
   0659 79                 3945 	ld	a,c
   065A F5                 3946 	push	af
   065B 33                 3947 	inc	sp
                           3948 ; genIpush
   065C 3E 01              3949 	ld	a,#0x01
   065E F5                 3950 	push	af
   065F 33                 3951 	inc	sp
                           3952 ; genCall
   0660 CD 00 00           3953 	call	_set_sprite_prop
   0663 E8 02              3954 	lda	sp,2(sp)
                           3955 ;	main.c 201
                           3956 ; genIpush
   0665 3E 01              3957 	ld	a,#0x01
   0667 F5                 3958 	push	af
   0668 33                 3959 	inc	sp
                           3960 ; genCall
   0669 CD 00 00           3961 	call	_get_sprite_prop
   066C 4B                 3962 	ld	c,e
   066D E8 01              3963 	lda	sp,1(sp)
                           3964 ; genAnd
   066F 79                 3965 	ld	a,c
   0670 E6 DF              3966 	and	a,#0xDF
   0672 4F                 3967 	ld	c,a
                           3968 ; genIpush
   0673 79                 3969 	ld	a,c
   0674 F5                 3970 	push	af
   0675 33                 3971 	inc	sp
                           3972 ; genIpush
   0676 3E 03              3973 	ld	a,#0x03
   0678 F5                 3974 	push	af
   0679 33                 3975 	inc	sp
                           3976 ; genCall
   067A CD 00 00           3977 	call	_set_sprite_prop
   067D E8 02              3978 	lda	sp,2(sp)
                           3979 ;	main.c 202
                           3980 ; genIpush
   067F 3E 01              3981 	ld	a,#0x01
   0681 F5                 3982 	push	af
   0682 33                 3983 	inc	sp
                           3984 ; genCall
   0683 CD 00 00           3985 	call	_get_sprite_prop
   0686 4B                 3986 	ld	c,e
   0687 E8 01              3987 	lda	sp,1(sp)
                           3988 ; genAnd
   0689 79                 3989 	ld	a,c
   068A E6 DF              3990 	and	a,#0xDF
   068C 4F                 3991 	ld	c,a
                           3992 ; genIpush
   068D 79                 3993 	ld	a,c
   068E F5                 3994 	push	af
   068F 33                 3995 	inc	sp
                           3996 ; genIpush
   0690 3E 00              3997 	ld	a,#0x00
   0692 F5                 3998 	push	af
   0693 33                 3999 	inc	sp
                           4000 ; genCall
   0694 CD 00 00           4001 	call	_set_sprite_prop
   0697 E8 02              4002 	lda	sp,2(sp)
                           4003 ;	main.c 203
                           4004 ; genIpush
   0699 3E 01              4005 	ld	a,#0x01
   069B F5                 4006 	push	af
   069C 33                 4007 	inc	sp
                           4008 ; genCall
   069D CD 00 00           4009 	call	_get_sprite_prop
   06A0 4B                 4010 	ld	c,e
   06A1 E8 01              4011 	lda	sp,1(sp)
                           4012 ; genAnd
   06A3 79                 4013 	ld	a,c
   06A4 E6 DF              4014 	and	a,#0xDF
   06A6 4F                 4015 	ld	c,a
                           4016 ; genIpush
   06A7 79                 4017 	ld	a,c
   06A8 F5                 4018 	push	af
   06A9 33                 4019 	inc	sp
                           4020 ; genIpush
   06AA 3E 02              4021 	ld	a,#0x02
   06AC F5                 4022 	push	af
   06AD 33                 4023 	inc	sp
                           4024 ; genCall
   06AE CD 00 00           4025 	call	_set_sprite_prop
   06B1 E8 02              4026 	lda	sp,2(sp)
                           4027 ;	main.c 205
                           4028 ; genCmpEq
                           4029 ; AOP_HL for _walkderetion
   06B3 21 62 01           4030 	ld	hl,#_walkderetion + 0
   06B6 7E                 4031 	ld	a,(hl) ; 2
   06B7 FE 01              4032 	cp	a,#0x01
   06B9 C2 C0 06           4033 	jp	nz,00170$
   06BC 3E 01              4034 	ld	a,#0x01
   06BE 18 01              4035 	jr	00171$
   06C0                    4036 00170$:
   06C0 AF                 4037 	xor	a,a
   06C1                    4038 00171$:
   06C1 4F                 4039 	ld	c,a
                           4040 ; genMinus
                           4041 ; AOP_HL for _playerx
   06C2 21 60 01           4042 	ld	hl,#_playerx + 0
   06C5 7E                 4043 	ld	a,(hl)
   06C6 C6 F0              4044 	add	a,#0xF0
   06C8 47                 4045 	ld	b,a
                           4046 ; genIpush
                           4047 ; AOP_HL for _playery
   06C9 21 61 01           4048 	ld	hl,#_playery + 0
   06CC 7E                 4049 	ld	a,(hl)
   06CD F5                 4050 	push	af
   06CE 33                 4051 	inc	sp
                           4052 ; genIpush
   06CF 78                 4053 	ld	a,b
   06D0 F5                 4054 	push	af
   06D1 33                 4055 	inc	sp
                           4056 ; genCall
   06D2 CD 9E 00           4057 	call	_maywalk
   06D5 43                 4058 	ld	b,e
   06D6 E8 02              4059 	lda	sp,2(sp)
                           4060 ; genAnd
   06D8 79                 4061 	ld	a,c
   06D9 A0                 4062 	and	a,b
   06DA 4F                 4063 	ld	c,a
                           4064 ; genIfx
                           4065 ; Removed redundent or a,a
   06DB AF                 4066 	xor	a,a
   06DC B1                 4067 	or	a,c
   06DD CA 7E 07           4068 	jp	z,00121$
                           4069 ;	main.c 207
                           4070 ; genIpush
                           4071 ; AOP_HL for _walkdelay
   06E0 21 63 01           4072 	ld	hl,#_walkdelay + 0
   06E3 7E                 4073 	ld	a,(hl)
   06E4 F5                 4074 	push	af
   06E5 33                 4075 	inc	sp
                           4076 ; genIpush
   06E6 3E 02              4077 	ld	a,#0x02
   06E8 F5                 4078 	push	af
   06E9 33                 4079 	inc	sp
                           4080 ; genIpush
   06EA 3E FC              4081 	ld	a,#0xFC
   06EC F5                 4082 	push	af
   06ED 33                 4083 	inc	sp
                           4084 ; genIpush
   06EE 21 60 01           4085 	ld	hl,#_playerx + 0
   06F1 E5                 4086 	push	hl
                           4087 ; genCall
   06F2 CD 59 00           4088 	call	_walk
   06F5 E8 05              4089 	lda	sp,5(sp)
                           4090 ;	main.c 208
                           4091 ; genIfx
                           4092 ; AOP_HL for _walkanimation
   06F7 AF                 4093 	xor	a,a
   06F8 21 68 01           4094 	ld	hl,#_walkanimation + 0
   06FB B6                 4095 	or	a,(hl)
   06FC B7                 4096 	or	a,a
   06FD CA 25 07           4097 	jp	z,00118$
                           4098 ;	main.c 209
                           4099 ; genIpush
   0700 3E 0E              4100 	ld	a,#0x0E
   0702 F5                 4101 	push	af
   0703 33                 4102 	inc	sp
                           4103 ; genIpush
   0704 3E 01              4104 	ld	a,#0x01
   0706 F5                 4105 	push	af
   0707 33                 4106 	inc	sp
                           4107 ; genCall
   0708 CD 00 00           4108 	call	_set_sprite_tile
   070B E8 02              4109 	lda	sp,2(sp)
                           4110 ;	main.c 211
                           4111 ; genIpush
   070D 3E 0F              4112 	ld	a,#0x0F
   070F F5                 4113 	push	af
   0710 33                 4114 	inc	sp
                           4115 ; genIpush
   0711 3E 03              4116 	ld	a,#0x03
   0713 F5                 4117 	push	af
   0714 33                 4118 	inc	sp
                           4119 ; genCall
   0715 CD 00 00           4120 	call	_set_sprite_tile
   0718 E8 02              4121 	lda	sp,2(sp)
                           4122 ;	main.c 214
                           4123 ; genCall
   071A CD 00 00           4124 	call	_display
                           4125 ;	main.c 215
                           4126 ; genAssign
                           4127 ; AOP_HL for _walkanimation
   071D 21 68 01           4128 	ld	hl,#_walkanimation + 0
   0720 36 00              4129 	ld	(hl),#0x00
                           4130 ; genGoto
   0722 C3 47 07           4131 	jp	00119$
                           4132 ; genLabel
   0725                    4133 00118$:
                           4134 ;	main.c 217
                           4135 ; genIpush
   0725 3E 10              4136 	ld	a,#0x10
   0727 F5                 4137 	push	af
   0728 33                 4138 	inc	sp
                           4139 ; genIpush
   0729 3E 01              4140 	ld	a,#0x01
   072B F5                 4141 	push	af
   072C 33                 4142 	inc	sp
                           4143 ; genCall
   072D CD 00 00           4144 	call	_set_sprite_tile
   0730 E8 02              4145 	lda	sp,2(sp)
                           4146 ;	main.c 219
                           4147 ; genIpush
   0732 3E 11              4148 	ld	a,#0x11
   0734 F5                 4149 	push	af
   0735 33                 4150 	inc	sp
                           4151 ; genIpush
   0736 3E 03              4152 	ld	a,#0x03
   0738 F5                 4153 	push	af
   0739 33                 4154 	inc	sp
                           4155 ; genCall
   073A CD 00 00           4156 	call	_set_sprite_tile
   073D E8 02              4157 	lda	sp,2(sp)
                           4158 ;	main.c 221
                           4159 ; genCall
   073F CD 00 00           4160 	call	_display
                           4161 ;	main.c 223
                           4162 ; genAssign
                           4163 ; AOP_HL for _walkanimation
   0742 21 68 01           4164 	ld	hl,#_walkanimation + 0
   0745 36 01              4165 	ld	(hl),#0x01
                           4166 ; genLabel
   0747                    4167 00119$:
                           4168 ;	main.c 225
                           4169 ; genIpush
                           4170 ; AOP_HL for _walkdelay
   0747 21 63 01           4171 	ld	hl,#_walkdelay + 0
   074A 7E                 4172 	ld	a,(hl)
   074B F5                 4173 	push	af
   074C 33                 4174 	inc	sp
                           4175 ; genIpush
   074D 3E 02              4176 	ld	a,#0x02
   074F F5                 4177 	push	af
   0750 33                 4178 	inc	sp
                           4179 ; genIpush
   0751 3E FC              4180 	ld	a,#0xFC
   0753 F5                 4181 	push	af
   0754 33                 4182 	inc	sp
                           4183 ; genIpush
   0755 21 60 01           4184 	ld	hl,#_playerx + 0
   0758 E5                 4185 	push	hl
                           4186 ; genCall
   0759 CD 59 00           4187 	call	_walk
   075C E8 05              4188 	lda	sp,5(sp)
                           4189 ;	main.c 229
                           4190 ; genIpush
   075E 3E 0B              4191 	ld	a,#0x0B
   0760 F5                 4192 	push	af
   0761 33                 4193 	inc	sp
                           4194 ; genIpush
   0762 3E 01              4195 	ld	a,#0x01
   0764 F5                 4196 	push	af
   0765 33                 4197 	inc	sp
                           4198 ; genCall
   0766 CD 00 00           4199 	call	_set_sprite_tile
   0769 E8 02              4200 	lda	sp,2(sp)
                           4201 ;	main.c 231
                           4202 ; genIpush
   076B 3E 0D              4203 	ld	a,#0x0D
   076D F5                 4204 	push	af
   076E 33                 4205 	inc	sp
                           4206 ; genIpush
   076F 3E 03              4207 	ld	a,#0x03
   0771 F5                 4208 	push	af
   0772 33                 4209 	inc	sp
                           4210 ; genCall
   0773 CD 00 00           4211 	call	_set_sprite_tile
   0776 E8 02              4212 	lda	sp,2(sp)
                           4213 ;	main.c 233
                           4214 ; genCall
   0778 CD 00 00           4215 	call	_display
                           4216 ; genGoto
   077B C3 8C 07           4217 	jp	00124$
                           4218 ; genLabel
   077E                    4219 00121$:
                           4220 ;	main.c 235
                           4221 ; genAssign
                           4222 ; AOP_HL for _walkderetion
   077E 21 62 01           4223 	ld	hl,#_walkderetion + 0
   0781 36 01              4224 	ld	(hl),#0x01
                           4225 ;	main.c 236
                           4226 ; genIpush
   0783 21 64 00           4227 	ld	hl,#0x0064
   0786 E5                 4228 	push	hl
                           4229 ; genCall
   0787 CD 00 00           4230 	call	_delay
   078A E8 02              4231 	lda	sp,2(sp)
                           4232 ; genLabel
   078C                    4233 00124$:
                           4234 ;	main.c 241
                           4235 ; genCall
   078C CD 00 00           4236 	call	_joypad
   078F 4B                 4237 	ld	c,e
                           4238 ; genCmpEq
   0790 79                 4239 	ld	a,c ; 2
   0791 FE 01              4240 	cp	a,#0x01
   0793 C2 98 07           4241 	jp	nz,00172$
   0796 18 03              4242 	jr	00173$
   0798                    4243 00172$:
   0798 C3 2A 09           4244 	jp	00132$
   079B                    4245 00173$:
                           4246 ;	main.c 242
                           4247 ; genIpush
   079B 3E 0C              4248 	ld	a,#0x0C
   079D F5                 4249 	push	af
   079E 33                 4250 	inc	sp
                           4251 ; genIpush
   079F 3E 00              4252 	ld	a,#0x00
   07A1 F5                 4253 	push	af
   07A2 33                 4254 	inc	sp
                           4255 ; genCall
   07A3 CD 00 00           4256 	call	_set_sprite_tile
   07A6 E8 02              4257 	lda	sp,2(sp)
                           4258 ;	main.c 243
                           4259 ; genIpush
   07A8 3E 0A              4260 	ld	a,#0x0A
   07AA F5                 4261 	push	af
   07AB 33                 4262 	inc	sp
                           4263 ; genIpush
   07AC 3E 02              4264 	ld	a,#0x02
   07AE F5                 4265 	push	af
   07AF 33                 4266 	inc	sp
                           4267 ; genCall
   07B0 CD 00 00           4268 	call	_set_sprite_tile
   07B3 E8 02              4269 	lda	sp,2(sp)
                           4270 ;	main.c 244
                           4271 ; genIpush
   07B5 3E 0D              4272 	ld	a,#0x0D
   07B7 F5                 4273 	push	af
   07B8 33                 4274 	inc	sp
                           4275 ; genIpush
   07B9 3E 01              4276 	ld	a,#0x01
   07BB F5                 4277 	push	af
   07BC 33                 4278 	inc	sp
                           4279 ; genCall
   07BD CD 00 00           4280 	call	_set_sprite_tile
   07C0 E8 02              4281 	lda	sp,2(sp)
                           4282 ;	main.c 245
                           4283 ; genIpush
   07C2 3E 0B              4284 	ld	a,#0x0B
   07C4 F5                 4285 	push	af
   07C5 33                 4286 	inc	sp
                           4287 ; genIpush
   07C6 3E 03              4288 	ld	a,#0x03
   07C8 F5                 4289 	push	af
   07C9 33                 4290 	inc	sp
                           4291 ; genCall
   07CA CD 00 00           4292 	call	_set_sprite_tile
   07CD E8 02              4293 	lda	sp,2(sp)
                           4294 ;	main.c 246
                           4295 ; genIpush
   07CF 3E 20              4296 	ld	a,#0x20
   07D1 F5                 4297 	push	af
   07D2 33                 4298 	inc	sp
                           4299 ; genIpush
   07D3 3E 01              4300 	ld	a,#0x01
   07D5 F5                 4301 	push	af
   07D6 33                 4302 	inc	sp
                           4303 ; genCall
   07D7 CD 00 00           4304 	call	_set_sprite_prop
   07DA E8 02              4305 	lda	sp,2(sp)
                           4306 ;	main.c 247
                           4307 ; genIpush
   07DC 3E 20              4308 	ld	a,#0x20
   07DE F5                 4309 	push	af
   07DF 33                 4310 	inc	sp
                           4311 ; genIpush
   07E0 3E 03              4312 	ld	a,#0x03
   07E2 F5                 4313 	push	af
   07E3 33                 4314 	inc	sp
                           4315 ; genCall
   07E4 CD 00 00           4316 	call	_set_sprite_prop
   07E7 E8 02              4317 	lda	sp,2(sp)
                           4318 ;	main.c 248
                           4319 ; genIpush
   07E9 3E 20              4320 	ld	a,#0x20
   07EB F5                 4321 	push	af
   07EC 33                 4322 	inc	sp
                           4323 ; genIpush
   07ED 3E 00              4324 	ld	a,#0x00
   07EF F5                 4325 	push	af
   07F0 33                 4326 	inc	sp
                           4327 ; genCall
   07F1 CD 00 00           4328 	call	_set_sprite_prop
   07F4 E8 02              4329 	lda	sp,2(sp)
                           4330 ;	main.c 249
                           4331 ; genIpush
   07F6 3E 20              4332 	ld	a,#0x20
   07F8 F5                 4333 	push	af
   07F9 33                 4334 	inc	sp
                           4335 ; genIpush
   07FA 3E 02              4336 	ld	a,#0x02
   07FC F5                 4337 	push	af
   07FD 33                 4338 	inc	sp
                           4339 ; genCall
   07FE CD 00 00           4340 	call	_set_sprite_prop
   0801 E8 02              4341 	lda	sp,2(sp)
                           4342 ;	main.c 250
                           4343 ; genCmpEq
                           4344 ; AOP_HL for _walkderetion
   0803 21 62 01           4345 	ld	hl,#_walkderetion + 0
   0806 7E                 4346 	ld	a,(hl) ; 2
   0807 FE 03              4347 	cp	a,#0x03
   0809 C2 10 08           4348 	jp	nz,00174$
   080C 3E 01              4349 	ld	a,#0x01
   080E 18 01              4350 	jr	00175$
   0810                    4351 00174$:
   0810 AF                 4352 	xor	a,a
   0811                    4353 00175$:
   0811 4F                 4354 	ld	c,a
                           4355 ; genPlus
                           4356 ; AOP_HL for _playerx
                           4357 ; genPlusIncr
                           4358 ;	genPlusIncr failed
   0812 21 60 01           4359 	ld	hl,#_playerx + 0
   0815 7E                 4360 	ld	a,(hl)
   0816 C6 10              4361 	add	a,#0x10
   0818 47                 4362 	ld	b,a
                           4363 ; genIpush
                           4364 ; AOP_HL for _playery
   0819 21 61 01           4365 	ld	hl,#_playery + 0
   081C 7E                 4366 	ld	a,(hl)
   081D F5                 4367 	push	af
   081E 33                 4368 	inc	sp
                           4369 ; genIpush
   081F 78                 4370 	ld	a,b
   0820 F5                 4371 	push	af
   0821 33                 4372 	inc	sp
                           4373 ; genCall
   0822 CD 9E 00           4374 	call	_maywalk
   0825 43                 4375 	ld	b,e
   0826 E8 02              4376 	lda	sp,2(sp)
                           4377 ; genAnd
   0828 79                 4378 	ld	a,c
   0829 A0                 4379 	and	a,b
   082A 4F                 4380 	ld	c,a
                           4381 ; genIfx
                           4382 ; Removed redundent or a,a
   082B AF                 4383 	xor	a,a
   082C B1                 4384 	or	a,c
   082D CA 1C 09           4385 	jp	z,00129$
                           4386 ;	main.c 252
                           4387 ; genIpush
                           4388 ; AOP_HL for _walkdelay
   0830 21 63 01           4389 	ld	hl,#_walkdelay + 0
   0833 7E                 4390 	ld	a,(hl)
   0834 F5                 4391 	push	af
   0835 33                 4392 	inc	sp
                           4393 ; genIpush
   0836 3E 02              4394 	ld	a,#0x02
   0838 F5                 4395 	push	af
   0839 33                 4396 	inc	sp
                           4397 ; genIpush
   083A 3E 04              4398 	ld	a,#0x04
   083C F5                 4399 	push	af
   083D 33                 4400 	inc	sp
                           4401 ; genIpush
   083E 21 60 01           4402 	ld	hl,#_playerx + 0
   0841 E5                 4403 	push	hl
                           4404 ; genCall
   0842 CD 59 00           4405 	call	_walk
   0845 E8 05              4406 	lda	sp,5(sp)
                           4407 ;	main.c 253
                           4408 ; genIfx
                           4409 ; AOP_HL for _walkanimation
   0847 AF                 4410 	xor	a,a
   0848 21 68 01           4411 	ld	hl,#_walkanimation + 0
   084B B6                 4412 	or	a,(hl)
   084C B7                 4413 	or	a,a
   084D CA A9 08           4414 	jp	z,00126$
                           4415 ;	main.c 254
                           4416 ; genIpush
   0850 3E 0E              4417 	ld	a,#0x0E
   0852 F5                 4418 	push	af
   0853 33                 4419 	inc	sp
                           4420 ; genIpush
   0854 3E 01              4421 	ld	a,#0x01
   0856 F5                 4422 	push	af
   0857 33                 4423 	inc	sp
                           4424 ; genCall
   0858 CD 00 00           4425 	call	_set_sprite_tile
   085B E8 02              4426 	lda	sp,2(sp)
                           4427 ;	main.c 255
                           4428 ; genIpush
   085D 3E 01              4429 	ld	a,#0x01
   085F F5                 4430 	push	af
   0860 33                 4431 	inc	sp
                           4432 ; genCall
   0861 CD 00 00           4433 	call	_get_sprite_prop
   0864 4B                 4434 	ld	c,e
   0865 E8 01              4435 	lda	sp,1(sp)
                           4436 ; genAnd
   0867 79                 4437 	ld	a,c
   0868 E6 DF              4438 	and	a,#0xDF
   086A 4F                 4439 	ld	c,a
                           4440 ; genIpush
   086B 79                 4441 	ld	a,c
   086C F5                 4442 	push	af
   086D 33                 4443 	inc	sp
                           4444 ; genIpush
   086E 3E 01              4445 	ld	a,#0x01
   0870 F5                 4446 	push	af
   0871 33                 4447 	inc	sp
                           4448 ; genCall
   0872 CD 00 00           4449 	call	_set_sprite_prop
   0875 E8 02              4450 	lda	sp,2(sp)
                           4451 ;	main.c 256
                           4452 ; genIpush
   0877 3E 0F              4453 	ld	a,#0x0F
   0879 F5                 4454 	push	af
   087A 33                 4455 	inc	sp
                           4456 ; genIpush
   087B 3E 03              4457 	ld	a,#0x03
   087D F5                 4458 	push	af
   087E 33                 4459 	inc	sp
                           4460 ; genCall
   087F CD 00 00           4461 	call	_set_sprite_tile
   0882 E8 02              4462 	lda	sp,2(sp)
                           4463 ;	main.c 257
                           4464 ; genIpush
   0884 3E 01              4465 	ld	a,#0x01
   0886 F5                 4466 	push	af
   0887 33                 4467 	inc	sp
                           4468 ; genCall
   0888 CD 00 00           4469 	call	_get_sprite_prop
   088B 4B                 4470 	ld	c,e
   088C E8 01              4471 	lda	sp,1(sp)
                           4472 ; genAnd
   088E 79                 4473 	ld	a,c
   088F E6 DF              4474 	and	a,#0xDF
   0891 4F                 4475 	ld	c,a
                           4476 ; genIpush
   0892 79                 4477 	ld	a,c
   0893 F5                 4478 	push	af
   0894 33                 4479 	inc	sp
                           4480 ; genIpush
   0895 3E 03              4481 	ld	a,#0x03
   0897 F5                 4482 	push	af
   0898 33                 4483 	inc	sp
                           4484 ; genCall
   0899 CD 00 00           4485 	call	_set_sprite_prop
   089C E8 02              4486 	lda	sp,2(sp)
                           4487 ;	main.c 259
                           4488 ; genCall
   089E CD 00 00           4489 	call	_display
                           4490 ;	main.c 260
                           4491 ; genAssign
                           4492 ; AOP_HL for _walkanimation
   08A1 21 68 01           4493 	ld	hl,#_walkanimation + 0
   08A4 36 00              4494 	ld	(hl),#0x00
                           4495 ; genGoto
   08A6 C3 CB 08           4496 	jp	00127$
                           4497 ; genLabel
   08A9                    4498 00126$:
                           4499 ;	main.c 262
                           4500 ; genIpush
   08A9 3E 11              4501 	ld	a,#0x11
   08AB F5                 4502 	push	af
   08AC 33                 4503 	inc	sp
                           4504 ; genIpush
   08AD 3E 01              4505 	ld	a,#0x01
   08AF F5                 4506 	push	af
   08B0 33                 4507 	inc	sp
                           4508 ; genCall
   08B1 CD 00 00           4509 	call	_set_sprite_tile
   08B4 E8 02              4510 	lda	sp,2(sp)
                           4511 ;	main.c 264
                           4512 ; genIpush
   08B6 3E 10              4513 	ld	a,#0x10
   08B8 F5                 4514 	push	af
   08B9 33                 4515 	inc	sp
                           4516 ; genIpush
   08BA 3E 03              4517 	ld	a,#0x03
   08BC F5                 4518 	push	af
   08BD 33                 4519 	inc	sp
                           4520 ; genCall
   08BE CD 00 00           4521 	call	_set_sprite_tile
   08C1 E8 02              4522 	lda	sp,2(sp)
                           4523 ;	main.c 266
                           4524 ; genCall
   08C3 CD 00 00           4525 	call	_display
                           4526 ;	main.c 268
                           4527 ; genAssign
                           4528 ; AOP_HL for _walkanimation
   08C6 21 68 01           4529 	ld	hl,#_walkanimation + 0
   08C9 36 01              4530 	ld	(hl),#0x01
                           4531 ; genLabel
   08CB                    4532 00127$:
                           4533 ;	main.c 271
                           4534 ; genIpush
                           4535 ; AOP_HL for _walkdelay
   08CB 21 63 01           4536 	ld	hl,#_walkdelay + 0
   08CE 7E                 4537 	ld	a,(hl)
   08CF F5                 4538 	push	af
   08D0 33                 4539 	inc	sp
                           4540 ; genIpush
   08D1 3E 02              4541 	ld	a,#0x02
   08D3 F5                 4542 	push	af
   08D4 33                 4543 	inc	sp
                           4544 ; genIpush
   08D5 3E 04              4545 	ld	a,#0x04
   08D7 F5                 4546 	push	af
   08D8 33                 4547 	inc	sp
                           4548 ; genIpush
   08D9 21 60 01           4549 	ld	hl,#_playerx + 0
   08DC E5                 4550 	push	hl
                           4551 ; genCall
   08DD CD 59 00           4552 	call	_walk
   08E0 E8 05              4553 	lda	sp,5(sp)
                           4554 ;	main.c 272
                           4555 ; genIpush
   08E2 3E 20              4556 	ld	a,#0x20
   08E4 F5                 4557 	push	af
   08E5 33                 4558 	inc	sp
                           4559 ; genIpush
   08E6 3E 01              4560 	ld	a,#0x01
   08E8 F5                 4561 	push	af
   08E9 33                 4562 	inc	sp
                           4563 ; genCall
   08EA CD 00 00           4564 	call	_set_sprite_prop
   08ED E8 02              4565 	lda	sp,2(sp)
                           4566 ;	main.c 273
                           4567 ; genIpush
   08EF 3E 20              4568 	ld	a,#0x20
   08F1 F5                 4569 	push	af
   08F2 33                 4570 	inc	sp
                           4571 ; genIpush
   08F3 3E 03              4572 	ld	a,#0x03
   08F5 F5                 4573 	push	af
   08F6 33                 4574 	inc	sp
                           4575 ; genCall
   08F7 CD 00 00           4576 	call	_set_sprite_prop
   08FA E8 02              4577 	lda	sp,2(sp)
                           4578 ;	main.c 276
                           4579 ; genIpush
   08FC 3E 0D              4580 	ld	a,#0x0D
   08FE F5                 4581 	push	af
   08FF 33                 4582 	inc	sp
                           4583 ; genIpush
   0900 3E 01              4584 	ld	a,#0x01
   0902 F5                 4585 	push	af
   0903 33                 4586 	inc	sp
                           4587 ; genCall
   0904 CD 00 00           4588 	call	_set_sprite_tile
   0907 E8 02              4589 	lda	sp,2(sp)
                           4590 ;	main.c 278
                           4591 ; genIpush
   0909 3E 0B              4592 	ld	a,#0x0B
   090B F5                 4593 	push	af
   090C 33                 4594 	inc	sp
                           4595 ; genIpush
   090D 3E 03              4596 	ld	a,#0x03
   090F F5                 4597 	push	af
   0910 33                 4598 	inc	sp
                           4599 ; genCall
   0911 CD 00 00           4600 	call	_set_sprite_tile
   0914 E8 02              4601 	lda	sp,2(sp)
                           4602 ;	main.c 280
                           4603 ; genCall
   0916 CD 00 00           4604 	call	_display
                           4605 ; genGoto
   0919 C3 2A 09           4606 	jp	00132$
                           4607 ; genLabel
   091C                    4608 00129$:
                           4609 ;	main.c 282
                           4610 ; genAssign
                           4611 ; AOP_HL for _walkderetion
   091C 21 62 01           4612 	ld	hl,#_walkderetion + 0
   091F 36 03              4613 	ld	(hl),#0x03
                           4614 ;	main.c 283
                           4615 ; genIpush
   0921 21 64 00           4616 	ld	hl,#0x0064
   0924 E5                 4617 	push	hl
                           4618 ; genCall
   0925 CD 00 00           4619 	call	_delay
   0928 E8 02              4620 	lda	sp,2(sp)
                           4621 ; genLabel
   092A                    4622 00132$:
                           4623 ;	main.c 288
                           4624 ; genCall
   092A CD 00 00           4625 	call	_joypad
   092D 4B                 4626 	ld	c,e
                           4627 ; genCmpEq
   092E 79                 4628 	ld	a,c ; 2
   092F FE 10              4629 	cp	a,#0x10
   0931 C2 36 09           4630 	jp	nz,00176$
   0934 18 03              4631 	jr	00177$
   0936                    4632 00176$:
   0936 C3 65 02           4633 	jp	00140$
   0939                    4634 00177$:
                           4635 ;	main.c 289
                           4636 ; genCmpEq
                           4637 ; AOP_HL for _walkspeedtype
   0939 21 64 01           4638 	ld	hl,#_walkspeedtype + 0
   093C 7E                 4639 	ld	a,(hl)
   093D B7                 4640 	or	a,a
                           4641 ; Rule 5
   093E CA 4D 09           4642 	jp	z,00133$
   0941                    4643 00178$:
                           4644 ; genCmpEq
                           4645 ; AOP_HL for _walkspeedtype
   0941 21 64 01           4646 	ld	hl,#_walkspeedtype + 0
   0944 7E                 4647 	ld	a,(hl) ; 2
   0945 FE 02              4648 	cp	a,#0x02
                           4649 ; Rule 5
   0947 CA 5A 09           4650 	jp	z,00134$
   094A                    4651 00179$:
                           4652 ; genGoto
   094A C3 67 09           4653 	jp	00135$
                           4654 ;	main.c 292
                           4655 ; genLabel
   094D                    4656 00133$:
                           4657 ; genAssign
                           4658 ; AOP_HL for _walkspeedtype
   094D 21 64 01           4659 	ld	hl,#_walkspeedtype + 0
   0950 36 01              4660 	ld	(hl),#0x01
                           4661 ;	main.c 293
                           4662 ; genAssign
                           4663 ; AOP_HL for _walkdelay
   0952 21 63 01           4664 	ld	hl,#_walkdelay + 0
   0955 36 32              4665 	ld	(hl),#0x32
                           4666 ;	main.c 294
                           4667 ; genGoto
   0957 C3 71 09           4668 	jp	00136$
                           4669 ;	main.c 297
                           4670 ; genLabel
   095A                    4671 00134$:
                           4672 ; genAssign
                           4673 ; AOP_HL for _walkspeedtype
   095A 21 64 01           4674 	ld	hl,#_walkspeedtype + 0
   095D 36 00              4675 	ld	(hl),#0x00
                           4676 ;	main.c 298
                           4677 ; genAssign
                           4678 ; AOP_HL for _walkdelay
   095F 21 63 01           4679 	ld	hl,#_walkdelay + 0
   0962 36 A0              4680 	ld	(hl),#0xA0
                           4681 ;	main.c 299
                           4682 ; genGoto
   0964 C3 71 09           4683 	jp	00136$
                           4684 ;	main.c 302
                           4685 ; genLabel
   0967                    4686 00135$:
                           4687 ; genAssign
                           4688 ; AOP_HL for _walkspeedtype
   0967 21 64 01           4689 	ld	hl,#_walkspeedtype + 0
   096A 36 00              4690 	ld	(hl),#0x00
                           4691 ;	main.c 303
                           4692 ; genAssign
                           4693 ; AOP_HL for _walkdelay
   096C 21 63 01           4694 	ld	hl,#_walkdelay + 0
   096F 36 A0              4695 	ld	(hl),#0xA0
                           4696 ;	main.c 305
                           4697 ; genLabel
   0971                    4698 00136$:
                           4699 ;	main.c 308
                           4700 ; genIpush
   0971 21 E8 03           4701 	ld	hl,#0x03E8
   0974 E5                 4702 	push	hl
                           4703 ; genCall
   0975 CD 00 00           4704 	call	_delay
   0978 E8 02              4705 	lda	sp,2(sp)
                           4706 ; genGoto
   097A C3 65 02           4707 	jp	00140$
                           4708 ; genLabel
   097D                    4709 00142$:
                           4710 ; genEndFunction
                           4711 	
   097D C1                 4712 	pop	bc
   097E C9                 4713 	ret
   097F                    4714 ___main_end:
                           4715 	.area _CODE
ASxxxx Assembler V01.75  (GameBoy Z80-like CPU), page 1.

Symbol Table

    _BCPD_REG                          **** GX
    _BCPS_REG                          **** GX
    _BGP_REG                           **** GX
    _DIV_REG                           **** GX
    _DMA_REG                           **** GX
    _HDMA1_REG                         **** GX
    _HDMA2_REG                         **** GX
    _HDMA3_REG                         **** GX
    _HDMA4_REG                         **** GX
    _HDMA5_REG                         **** GX
    _IE_REG                            **** GX
    _IF_REG                            **** GX
    _KEY1_REG                          **** GX
    _LCDC_REG                          **** GX
    _LYC_REG                           **** GX
    _LY_REG                            **** GX
    _NR10_REG                          **** GX
    _NR11_REG                          **** GX
    _NR12_REG                          **** GX
    _NR13_REG                          **** GX
    _NR14_REG                          **** GX
    _NR21_REG                          **** GX
    _NR22_REG                          **** GX
    _NR23_REG                          **** GX
    _NR24_REG                          **** GX
    _NR30_REG                          **** GX
    _NR31_REG                          **** GX
    _NR32_REG                          **** GX
    _NR33_REG                          **** GX
    _NR34_REG                          **** GX
    _NR41_REG                          **** GX
    _NR42_REG                          **** GX
    _NR43_REG                          **** GX
    _NR44_REG                          **** GX
    _NR50_REG                          **** GX
    _NR51_REG                          **** GX
    _NR52_REG                          **** GX
    _OBP0_REG                          **** GX
    _OBP1_REG                          **** GX
    _OCPD_REG                          **** GX
    _OCPS_REG                          **** GX
    _P1_REG                            **** GX
    _RP_REG                            **** GX
    _SB_REG                            **** GX
    _SCX_REG                           **** GX
    _SCY_REG                           **** GX
    _SC_REG                            **** GX
    _STAT_REG                          **** GX
    _SVBK_REG                          **** GX
    _TAC_REG                           **** GX
    _TIMA_REG                          **** GX
    _TMA_REG                           **** GX
    _VBK_REG                           **** GX
    _WX_REG                            **** GX
    _WY_REG                            **** GX
  0 ___display_end                     0059 R
  0 ___display_start                   0000 R
  0 ___main_end                        097F R
  0 ___main_start                      0133 R
  0 ___maywalk_end                     0133 R
  0 ___maywalk_start                   009E R
  0 ___walk_end                        009E R
  0 ___walk_start                      0059 R
    __cpu                              **** GX
    __io_in                            **** GX
    __io_out                           **** GX
    __io_status                        **** GX
    _delay                             **** GX
  0 _display                           0000 GR
    _get_sprite_prop                   **** GX
  1 _i                                 0167 GR
    _joypad                            **** GX
  0 _main                              0133 GR
  0 _maywalk                           009E GR
    _move_sprite                       **** GX
  1 _npcx                              0165 GR
  1 _npcy                              0166 GR
  1 _playerData                        0000 GR
  1 _playerx                           0160 GR
  1 _playery                           0161 GR
    _set_sprite_data                   **** GX
    _set_sprite_prop                   **** GX
    _set_sprite_tile                   **** GX
    _sys_time                          **** GX
  0 _walk                              0059 GR
  1 _walkanimation                     0168 GR
  1 _walkdelay                         0163 GR
  1 _walkderetion                      0162 GR
  1 _walkspeedtype                     0164 GR

ASxxxx Assembler V01.75  (GameBoy Z80-like CPU), page 2.

Area Table

   0 _CODE                              size  97F   flags 0
   1 _DATA                              size  169   flags 0
   2 _OVERLAY                           size    0   flags 0
   3 _ISEG                              size    0   flags 0
   4 _BSEG                              size    0   flags 0
   5 _XSEG                              size    0   flags 0
   6 _GSINIT                            size  86D   flags 0
   7 _GSFINAL                           size    0   flags 0
   8 _HOME                              size    0   flags 0
